; ModuleID = '/mnt/f/dev/522r/522r_asst4/4-nn.prj/solution1/.autopilot/db/a.o.bc'
target datalayout = "e-p:64:64:64-i1:8:8-i8:8:8-i16:16:16-i32:32:32-i64:64:64-f32:32:32-f64:64:64-v64:64:64-v128:128:128-a0:0:64-s0:64:64-f80:128:128-n8:16:32:64-S128"
target triple = "x86_64-unknown-linux-gnu"

%"class.std::ios_base::Init" = type {}
%struct.ap_uint = type { %struct.ap_int_base }
%struct.ap_int_base = type { %struct.ssdm_int }
%struct.ssdm_int = type { i49 }
%struct.ap_uint.0 = type { %struct.ap_int_base.1 }
%struct.ap_int_base.1 = type { %struct.ssdm_int.2 }
%struct.ssdm_int.2 = type { i4 }
%struct.ap_uint.3 = type { %struct.ap_int_base.4 }
%struct.ap_int_base.4 = type { %struct.ssdm_int.5 }
%struct.ssdm_int.5 = type { i6 }
%struct.ap_bit_ref = type { %struct.ap_int_base*, i32 }
%struct.ap_int_base.15 = type { %struct.ssdm_int.16 }
%struct.ssdm_int.16 = type { i1 }

@_ZStL8__ioinit = internal global %"class.std::ios_base::Init" zeroinitializer, align 1 ; [#uses=2 type=%"class.std::ios_base::Init"*]
@_ZL13training_data = internal global [18000 x %struct.ap_uint] zeroinitializer, align 16 ; [#uses=18002 type=[18000 x %struct.ap_uint]*]
@.str = private unnamed_addr constant [6 x i8] c"loop2\00", align 1 ; [#uses=1 type=[6 x i8]*]
@.str2 = private unnamed_addr constant [8 x i8] c"loop2_1\00", align 1 ; [#uses=1 type=[8 x i8]*]
@.str3 = private unnamed_addr constant [1 x i8] zeroinitializer, align 1 ; [#uses=1 type=[1 x i8]*]
@_ZL21ssdm_global_array_ins = internal global %"class.std::ios_base::Init" zeroinitializer, align 1 ; [#uses=1 type=%"class.std::ios_base::Init"*]
@llvm.global_ctors = appending global [1 x { i32, void ()* }] [{ i32, void ()* } { i32 65535, void ()* @_GLOBAL__I_a }] ; [#uses=0 type=[1 x { i32, void ()* }]*]

; [#uses=1]
define internal void @__cxx_global_var_init() nounwind section ".text.startup" {
  call void @_ZNSt8ios_base4InitC1Ev(%"class.std::ios_base::Init"* @_ZStL8__ioinit)
  %1 = call i32 @atexit(void ()* @__dtor__ZStL8__ioinit) ; [#uses=0 type=i32]
  ret void
}

; [#uses=1]
declare void @_ZNSt8ios_base4InitC1Ev(%"class.std::ios_base::Init"*)

; [#uses=1]
declare void @_ZNSt8ios_base4InitD1Ev(%"class.std::ios_base::Init"*)

; [#uses=1]
define internal void @__dtor__ZStL8__ioinit() nounwind section ".text.startup" {
  call void @_ZNSt8ios_base4InitD1Ev(%"class.std::ios_base::Init"* @_ZStL8__ioinit)
  ret void
}

; [#uses=1]
declare i32 @atexit(void ()*) nounwind

; [#uses=1]
define internal void @__cxx_global_var_init1() nounwind section ".text.startup" {
  call void @_ZN7ap_uintILi49EEC1El(%struct.ap_uint* getelementptr inbounds ([18000 x %struct.ap_uint]* @_ZL13training_data, i64 0, i64 0), i64 209980300288)
  call void @_ZN7ap_uintILi49EEC1El(%struct.ap_uint* getelementptr inbounds ([18000 x %struct.ap_uint]* @_ZL13training_data, i64 0, i64 1), i64 420416916992)
  call void @_ZN7ap_uintILi49EEC1El(%struct.ap_uint* getelementptr inbounds ([18000 x %struct.ap_uint]* @_ZL13training_data, i64 0, i64 2), i64 213243206656)
  call void @_ZN7ap_uintILi49EEC1El(%struct.ap_uint* getelementptr inbounds ([18000 x %struct.ap_uint]* @_ZL13training_data, i64 0, i64 3), i64 417732529664)
  call void @_ZN7ap_uintILi49EEC1El(%struct.ap_uint* getelementptr inbounds ([18000 x %struct.ap_uint]* @_ZL13training_data, i64 0, i64 4), i64 488129502208)
  call void @_ZN7ap_uintILi49EEC1El(%struct.ap_uint* getelementptr inbounds ([18000 x %struct.ap_uint]* @_ZL13training_data, i64 0, i64 5), i64 967010258432)
  call void @_ZN7ap_uintILi49EEC1El(%struct.ap_uint* getelementptr inbounds ([18000 x %struct.ap_uint]* @_ZL13training_data, i64 0, i64 6), i64 419334262272)
  call void @_ZN7ap_uintILi49EEC1El(%struct.ap_uint* getelementptr inbounds ([18000 x %struct.ap_uint]* @_ZL13training_data, i64 0, i64 7), i64 420494675712)
  call void @_ZN7ap_uintILi49EEC1El(%struct.ap_uint* getelementptr inbounds ([18000 x %struct.ap_uint]* @_ZL13training_data, i64 0, i64 8), i64 966943084032)
  call void @_ZN7ap_uintILi49EEC1El(%struct.ap_uint* getelementptr inbounds ([18000 x %struct.ap_uint]* @_ZL13training_data, i64 0, i64 9), i64 141235821568)
  call void @_ZN7ap_uintILi49EEC1El(%struct.ap_uint* getelementptr inbounds ([18000 x %struct.ap_uint]* @_ZL13training_data, i64 0, i64 10), i64 968024853504)
  call void @_ZN7ap_uintILi49EEC1El(%struct.ap_uint* getelementptr inbounds ([18000 x %struct.ap_uint]* @_ZL13training_data, i64 0, i64 11), i64 489220316672)
  call void @_ZN7ap_uintILi49EEC1El(%struct.ap_uint* getelementptr inbounds ([18000 x %struct.ap_uint]* @_ZL13training_data, i64 0, i64 12), i64 8160643072)
  call void @_ZN7ap_uintILi49EEC1El(%struct.ap_uint* getelementptr inbounds ([18000 x %struct.ap_uint]* @_ZL13training_data, i64 0, i64 13), i64 420475674120)
  call void @_ZN7ap_uintILi49EEC1El(%struct.ap_uint* getelementptr inbounds ([18000 x %struct.ap_uint]* @_ZL13training_data, i64 0, i64 14), i64 841348845056)
  call void @_ZN7ap_uintILi49EEC1El(%struct.ap_uint* getelementptr inbounds ([18000 x %struct.ap_uint]* @_ZL13training_data, i64 0, i64 15), i64 416113036288)
  call void @_ZN7ap_uintILi49EEC1El(%struct.ap_uint* getelementptr inbounds ([18000 x %struct.ap_uint]* @_ZL13training_data, i64 0, i64 16), i64 420475670016)
  call void @_ZN7ap_uintILi49EEC1El(%struct.ap_uint* getelementptr inbounds ([18000 x %struct.ap_uint]* @_ZL13training_data, i64 0, i64 17), i64 489195146752)
  call void @_ZN7ap_uintILi49EEC1El(%struct.ap_uint* getelementptr inbounds ([18000 x %struct.ap_uint]* @_ZL13training_data, i64 0, i64 18), i64 487022628352)
  call void @_ZN7ap_uintILi49EEC1El(%struct.ap_uint* getelementptr inbounds ([18000 x %struct.ap_uint]* @_ZL13training_data, i64 0, i64 19), i64 141244176384)
  call void @_ZN7ap_uintILi49EEC1El(%struct.ap_uint* getelementptr inbounds ([18000 x %struct.ap_uint]* @_ZL13training_data, i64 0, i64 20), i64 488121536000)
  call void @_ZN7ap_uintILi49EEC1El(%struct.ap_uint* getelementptr inbounds ([18000 x %struct.ap_uint]* @_ZL13training_data, i64 0, i64 21), i64 145534557696)
  call void @_ZN7ap_uintILi49EEC1El(%struct.ap_uint* getelementptr inbounds ([18000 x %struct.ap_uint]* @_ZL13training_data, i64 0, i64 22), i64 416113036800)
  call void @_ZN7ap_uintILi49EEC1El(%struct.ap_uint* getelementptr inbounds ([18000 x %struct.ap_uint]* @_ZL13training_data, i64 0, i64 23), i64 830577511424)
  call void @_ZN7ap_uintILi49EEC1El(%struct.ap_uint* getelementptr inbounds ([18000 x %struct.ap_uint]* @_ZL13training_data, i64 0, i64 24), i64 841348845312)
  call void @_ZN7ap_uintILi49EEC1El(%struct.ap_uint* getelementptr inbounds ([18000 x %struct.ap_uint]* @_ZL13training_data, i64 0, i64 25), i64 209971649536)
  call void @_ZN7ap_uintILi49EEC1El(%struct.ap_uint* getelementptr inbounds ([18000 x %struct.ap_uint]* @_ZL13training_data, i64 0, i64 26), i64 420416392704)
  call void @_ZN7ap_uintILi49EEC1El(%struct.ap_uint* getelementptr inbounds ([18000 x %struct.ap_uint]* @_ZL13training_data, i64 0, i64 27), i64 967483657728)
  call void @_ZN7ap_uintILi49EEC1El(%struct.ap_uint* getelementptr inbounds ([18000 x %struct.ap_uint]* @_ZL13training_data, i64 0, i64 28), i64 417727843840)
  call void @_ZN7ap_uintILi49EEC1El(%struct.ap_uint* getelementptr inbounds ([18000 x %struct.ap_uint]* @_ZL13training_data, i64 0, i64 29), i64 8122895360)
  call void @_ZN7ap_uintILi49EEC1El(%struct.ap_uint* getelementptr inbounds ([18000 x %struct.ap_uint]* @_ZL13training_data, i64 0, i64 30), i64 280855413760)
  call void @_ZN7ap_uintILi49EEC1El(%struct.ap_uint* getelementptr inbounds ([18000 x %struct.ap_uint]* @_ZL13training_data, i64 0, i64 31), i64 417186810880)
  call void @_ZN7ap_uintILi49EEC1El(%struct.ap_uint* getelementptr inbounds ([18000 x %struct.ap_uint]* @_ZL13training_data, i64 0, i64 32), i64 969626914312)
  call void @_ZN7ap_uintILi49EEC1El(%struct.ap_uint* getelementptr inbounds ([18000 x %struct.ap_uint]* @_ZL13training_data, i64 0, i64 33), i64 488121244672)
  call void @_ZN7ap_uintILi49EEC1El(%struct.ap_uint* getelementptr inbounds ([18000 x %struct.ap_uint]* @_ZL13training_data, i64 0, i64 34), i64 417732038144)
  call void @_ZN7ap_uintILi49EEC1El(%struct.ap_uint* getelementptr inbounds ([18000 x %struct.ap_uint]* @_ZL13training_data, i64 0, i64 35), i64 488121146880)
  call void @_ZN7ap_uintILi49EEC1El(%struct.ap_uint* getelementptr inbounds ([18000 x %struct.ap_uint]* @_ZL13training_data, i64 0, i64 36), i64 209972075520)
  call void @_ZN7ap_uintILi49EEC1El(%struct.ap_uint* getelementptr inbounds ([18000 x %struct.ap_uint]* @_ZL13training_data, i64 0, i64 37), i64 976640056832)
  call void @_ZN7ap_uintILi49EEC1El(%struct.ap_uint* getelementptr inbounds ([18000 x %struct.ap_uint]* @_ZL13training_data, i64 0, i64 38), i64 976640380416)
  call void @_ZN7ap_uintILi49EEC1El(%struct.ap_uint* getelementptr inbounds ([18000 x %struct.ap_uint]* @_ZL13training_data, i64 0, i64 39), i64 420408561152)
  call void @_ZN7ap_uintILi49EEC1El(%struct.ap_uint* getelementptr inbounds ([18000 x %struct.ap_uint]* @_ZL13training_data, i64 0, i64 40), i64 970231483904)
  call void @_ZN7ap_uintILi49EEC1El(%struct.ap_uint* getelementptr inbounds ([18000 x %struct.ap_uint]* @_ZL13training_data, i64 0, i64 41), i64 489463324160)
  call void @_ZN7ap_uintILi49EEC1El(%struct.ap_uint* getelementptr inbounds ([18000 x %struct.ap_uint]* @_ZL13training_data, i64 0, i64 42), i64 970172763648)
  call void @_ZN7ap_uintILi49EEC1El(%struct.ap_uint* getelementptr inbounds ([18000 x %struct.ap_uint]* @_ZL13training_data, i64 0, i64 43), i64 970164309768)
  call void @_ZN7ap_uintILi49EEC1El(%struct.ap_uint* getelementptr inbounds ([18000 x %struct.ap_uint]* @_ZL13training_data, i64 0, i64 44), i64 418294631936)
  call void @_ZN7ap_uintILi49EEC1El(%struct.ap_uint* getelementptr inbounds ([18000 x %struct.ap_uint]* @_ZL13training_data, i64 0, i64 45), i64 419942731272)
  call void @_ZN7ap_uintILi49EEC1El(%struct.ap_uint* getelementptr inbounds ([18000 x %struct.ap_uint]* @_ZL13training_data, i64 0, i64 46), i64 488087559168)
  call void @_ZN7ap_uintILi49EEC1El(%struct.ap_uint* getelementptr inbounds ([18000 x %struct.ap_uint]* @_ZL13training_data, i64 0, i64 47), i64 208885058560)
  call void @_ZN7ap_uintILi49EEC1El(%struct.ap_uint* getelementptr inbounds ([18000 x %struct.ap_uint]* @_ZL13training_data, i64 0, i64 48), i64 488121146368)
  call void @_ZN7ap_uintILi49EEC1El(%struct.ap_uint* getelementptr inbounds ([18000 x %struct.ap_uint]* @_ZL13training_data, i64 0, i64 49), i64 420441788160)
  call void @_ZN7ap_uintILi49EEC1El(%struct.ap_uint* getelementptr inbounds ([18000 x %struct.ap_uint]* @_ZL13training_data, i64 0, i64 50), i64 141235395584)
  call void @_ZN7ap_uintILi49EEC1El(%struct.ap_uint* getelementptr inbounds ([18000 x %struct.ap_uint]* @_ZL13training_data, i64 0, i64 51), i64 489195281408)
  call void @_ZN7ap_uintILi49EEC1El(%struct.ap_uint* getelementptr inbounds ([18000 x %struct.ap_uint]* @_ZL13training_data, i64 0, i64 52), i64 419875326976)
  call void @_ZN7ap_uintILi49EEC1El(%struct.ap_uint* getelementptr inbounds ([18000 x %struct.ap_uint]* @_ZL13training_data, i64 0, i64 53), i64 418294340608)
  call void @_ZN7ap_uintILi49EEC1El(%struct.ap_uint* getelementptr inbounds ([18000 x %struct.ap_uint]* @_ZL13training_data, i64 0, i64 54), i64 489211797008)
  call void @_ZN7ap_uintILi49EEC1El(%struct.ap_uint* getelementptr inbounds ([18000 x %struct.ap_uint]* @_ZL13training_data, i64 0, i64 55), i64 485906812416)
  call void @_ZN7ap_uintILi49EEC1El(%struct.ap_uint* getelementptr inbounds ([18000 x %struct.ap_uint]* @_ZL13training_data, i64 0, i64 56), i64 978787536640)
  call void @_ZN7ap_uintILi49EEC1El(%struct.ap_uint* getelementptr inbounds ([18000 x %struct.ap_uint]* @_ZL13training_data, i64 0, i64 57), i64 140702452736)
  call void @_ZN7ap_uintILi49EEC1El(%struct.ap_uint* getelementptr inbounds ([18000 x %struct.ap_uint]* @_ZL13training_data, i64 0, i64 58), i64 141252558848)
  call void @_ZN7ap_uintILi49EEC1El(%struct.ap_uint* getelementptr inbounds ([18000 x %struct.ap_uint]* @_ZL13training_data, i64 0, i64 59), i64 208880868352)
  call void @_ZN7ap_uintILi49EEC1El(%struct.ap_uint* getelementptr inbounds ([18000 x %struct.ap_uint]* @_ZL13training_data, i64 0, i64 60), i64 417254116864)
  call void @_ZN7ap_uintILi49EEC1El(%struct.ap_uint* getelementptr inbounds ([18000 x %struct.ap_uint]* @_ZL13training_data, i64 0, i64 61), i64 419401600512)
  call void @_ZN7ap_uintILi49EEC1El(%struct.ap_uint* getelementptr inbounds ([18000 x %struct.ap_uint]* @_ZL13training_data, i64 0, i64 62), i64 416129944576)
  call void @_ZN7ap_uintILi49EEC1El(%struct.ap_uint* getelementptr inbounds ([18000 x %struct.ap_uint]* @_ZL13training_data, i64 0, i64 63), i64 968083410688)
  call void @_ZN7ap_uintILi49EEC1El(%struct.ap_uint* getelementptr inbounds ([18000 x %struct.ap_uint]* @_ZL13training_data, i64 0, i64 64), i64 140719229952)
  call void @_ZN7ap_uintILi49EEC1El(%struct.ap_uint* getelementptr inbounds ([18000 x %struct.ap_uint]* @_ZL13training_data, i64 0, i64 65), i64 970164375040)
  call void @_ZN7ap_uintILi49EEC1El(%struct.ap_uint* getelementptr inbounds ([18000 x %struct.ap_uint]* @_ZL13training_data, i64 0, i64 66), i64 8158547456)
  call void @_ZN7ap_uintILi49EEC1El(%struct.ap_uint* getelementptr inbounds ([18000 x %struct.ap_uint]* @_ZL13training_data, i64 0, i64 67), i64 144492236288)
  call void @_ZN7ap_uintILi49EEC1El(%struct.ap_uint* getelementptr inbounds ([18000 x %struct.ap_uint]* @_ZL13training_data, i64 0, i64 68), i64 141244046336)
  call void @_ZN7ap_uintILi49EEC1El(%struct.ap_uint* getelementptr inbounds ([18000 x %struct.ap_uint]* @_ZL13training_data, i64 0, i64 69), i64 1047507082760)
  call void @_ZN7ap_uintILi49EEC1El(%struct.ap_uint* getelementptr inbounds ([18000 x %struct.ap_uint]* @_ZL13training_data, i64 0, i64 70), i64 417732038144)
  call void @_ZN7ap_uintILi49EEC1El(%struct.ap_uint* getelementptr inbounds ([18000 x %struct.ap_uint]* @_ZL13training_data, i64 0, i64 71), i64 967513247232)
  call void @_ZN7ap_uintILi49EEC1El(%struct.ap_uint* getelementptr inbounds ([18000 x %struct.ap_uint]* @_ZL13training_data, i64 0, i64 72), i64 415597136896)
  call void @_ZN7ap_uintILi49EEC1El(%struct.ap_uint* getelementptr inbounds ([18000 x %struct.ap_uint]* @_ZL13training_data, i64 0, i64 73), i64 1047549419264)
  call void @_ZN7ap_uintILi49EEC1El(%struct.ap_uint* getelementptr inbounds ([18000 x %struct.ap_uint]* @_ZL13training_data, i64 0, i64 74), i64 419871099400)
  call void @_ZN7ap_uintILi49EEC1El(%struct.ap_uint* getelementptr inbounds ([18000 x %struct.ap_uint]* @_ZL13training_data, i64 0, i64 75), i64 489194823168)
  call void @_ZN7ap_uintILi49EEC1El(%struct.ap_uint* getelementptr inbounds ([18000 x %struct.ap_uint]* @_ZL13training_data, i64 0, i64 76), i64 282432146944)
  call void @_ZN7ap_uintILi49EEC1El(%struct.ap_uint* getelementptr inbounds ([18000 x %struct.ap_uint]* @_ZL13training_data, i64 0, i64 77), i64 978838327040)
  call void @_ZN7ap_uintILi49EEC1El(%struct.ap_uint* getelementptr inbounds ([18000 x %struct.ap_uint]* @_ZL13training_data, i64 0, i64 78), i64 420492447488)
  call void @_ZN7ap_uintILi49EEC1El(%struct.ap_uint* getelementptr inbounds ([18000 x %struct.ap_uint]* @_ZL13training_data, i64 0, i64 79), i64 975600127744)
  call void @_ZN7ap_uintILi49EEC1El(%struct.ap_uint* getelementptr inbounds ([18000 x %struct.ap_uint]* @_ZL13training_data, i64 0, i64 80), i64 213176323584)
  call void @_ZN7ap_uintILi49EEC1El(%struct.ap_uint* getelementptr inbounds ([18000 x %struct.ap_uint]* @_ZL13training_data, i64 0, i64 81), i64 420416916992)
  call void @_ZN7ap_uintILi49EEC1El(%struct.ap_uint* getelementptr inbounds ([18000 x %struct.ap_uint]* @_ZL13training_data, i64 0, i64 82), i64 76878416896)
  call void @_ZN7ap_uintILi49EEC1El(%struct.ap_uint* getelementptr inbounds ([18000 x %struct.ap_uint]* @_ZL13training_data, i64 0, i64 83), i64 16773514752)
  call void @_ZN7ap_uintILi49EEC1El(%struct.ap_uint* getelementptr inbounds ([18000 x %struct.ap_uint]* @_ZL13training_data, i64 0, i64 84), i64 141256100864)
  call void @_ZN7ap_uintILi49EEC1El(%struct.ap_uint* getelementptr inbounds ([18000 x %struct.ap_uint]* @_ZL13training_data, i64 0, i64 85), i64 488054004736)
  call void @_ZN7ap_uintILi49EEC1El(%struct.ap_uint* getelementptr inbounds ([18000 x %struct.ap_uint]* @_ZL13training_data, i64 0, i64 86), i64 489152777216)
  call void @_ZN7ap_uintILi49EEC1El(%struct.ap_uint* getelementptr inbounds ([18000 x %struct.ap_uint]* @_ZL13training_data, i64 0, i64 87), i64 418327862784)
  call void @_ZN7ap_uintILi49EEC1El(%struct.ap_uint* getelementptr inbounds ([18000 x %struct.ap_uint]* @_ZL13training_data, i64 0, i64 88), i64 830048931328)
  call void @_ZN7ap_uintILi49EEC1El(%struct.ap_uint* getelementptr inbounds ([18000 x %struct.ap_uint]* @_ZL13training_data, i64 0, i64 89), i64 420483800576)
  call void @_ZN7ap_uintILi49EEC1El(%struct.ap_uint* getelementptr inbounds ([18000 x %struct.ap_uint]* @_ZL13training_data, i64 0, i64 90), i64 419401928192)
  call void @_ZN7ap_uintILi49EEC1El(%struct.ap_uint* getelementptr inbounds ([18000 x %struct.ap_uint]* @_ZL13training_data, i64 0, i64 91), i64 419342916608)
  call void @_ZN7ap_uintILi49EEC1El(%struct.ap_uint* getelementptr inbounds ([18000 x %struct.ap_uint]* @_ZL13training_data, i64 0, i64 92), i64 421515529728)
  call void @_ZN7ap_uintILi49EEC1El(%struct.ap_uint* getelementptr inbounds ([18000 x %struct.ap_uint]* @_ZL13training_data, i64 0, i64 93), i64 209972042752)
  call void @_ZN7ap_uintILi49EEC1El(%struct.ap_uint* getelementptr inbounds ([18000 x %struct.ap_uint]* @_ZL13training_data, i64 0, i64 94), i64 488121113600)
  call void @_ZN7ap_uintILi49EEC1El(%struct.ap_uint* getelementptr inbounds ([18000 x %struct.ap_uint]* @_ZL13training_data, i64 0, i64 95), i64 420475674112)
  call void @_ZN7ap_uintILi49EEC1El(%struct.ap_uint* getelementptr inbounds ([18000 x %struct.ap_uint]* @_ZL13training_data, i64 0, i64 96), i64 415580359680)
  call void @_ZN7ap_uintILi49EEC1El(%struct.ap_uint* getelementptr inbounds ([18000 x %struct.ap_uint]* @_ZL13training_data, i64 0, i64 97), i64 1036803476992)
  call void @_ZN7ap_uintILi49EEC1El(%struct.ap_uint* getelementptr inbounds ([18000 x %struct.ap_uint]* @_ZL13training_data, i64 0, i64 98), i64 18078160096768)
  call void @_ZN7ap_uintILi49EEC1El(%struct.ap_uint* getelementptr inbounds ([18000 x %struct.ap_uint]* @_ZL13training_data, i64 0, i64 99), i64 280318548992)
  call void @_ZN7ap_uintILi49EEC1El(%struct.ap_uint* getelementptr inbounds ([18000 x %struct.ap_uint]* @_ZL13training_data, i64 0, i64 100), i64 967555517952)
  call void @_ZN7ap_uintILi49EEC1El(%struct.ap_uint* getelementptr inbounds ([18000 x %struct.ap_uint]* @_ZL13training_data, i64 0, i64 101), i64 209954872320)
  call void @_ZN7ap_uintILi49EEC1El(%struct.ap_uint* getelementptr inbounds ([18000 x %struct.ap_uint]* @_ZL13training_data, i64 0, i64 102), i64 419880046080)
  call void @_ZN7ap_uintILi49EEC1El(%struct.ap_uint* getelementptr inbounds ([18000 x %struct.ap_uint]* @_ZL13training_data, i64 0, i64 103), i64 280288890368)
  call void @_ZN7ap_uintILi49EEC1El(%struct.ap_uint* getelementptr inbounds ([18000 x %struct.ap_uint]* @_ZL13training_data, i64 0, i64 104), i64 968083475968)
  call void @_ZN7ap_uintILi49EEC1El(%struct.ap_uint* getelementptr inbounds ([18000 x %struct.ap_uint]* @_ZL13training_data, i64 0, i64 105), i64 420475800576)
  call void @_ZN7ap_uintILi49EEC1El(%struct.ap_uint* getelementptr inbounds ([18000 x %struct.ap_uint]* @_ZL13training_data, i64 0, i64 106), i64 417253854720)
  call void @_ZN7ap_uintILi49EEC1El(%struct.ap_uint* getelementptr inbounds ([18000 x %struct.ap_uint]* @_ZL13training_data, i64 0, i64 107), i64 420500971008)
  call void @_ZN7ap_uintILi49EEC1El(%struct.ap_uint* getelementptr inbounds ([18000 x %struct.ap_uint]* @_ZL13training_data, i64 0, i64 108), i64 282440533504)
  call void @_ZN7ap_uintILi49EEC1El(%struct.ap_uint* getelementptr inbounds ([18000 x %struct.ap_uint]* @_ZL13training_data, i64 0, i64 109), i64 140230888448)
  call void @_ZN7ap_uintILi49EEC1El(%struct.ap_uint* getelementptr inbounds ([18000 x %struct.ap_uint]* @_ZL13training_data, i64 0, i64 110), i64 420500966912)
  call void @_ZN7ap_uintILi49EEC1El(%struct.ap_uint* getelementptr inbounds ([18000 x %struct.ap_uint]* @_ZL13training_data, i64 0, i64 111), i64 489195281920)
  call void @_ZN7ap_uintILi49EEC1El(%struct.ap_uint* getelementptr inbounds ([18000 x %struct.ap_uint]* @_ZL13training_data, i64 0, i64 112), i64 1044285853184)
  call void @_ZN7ap_uintILi49EEC1El(%struct.ap_uint* getelementptr inbounds ([18000 x %struct.ap_uint]* @_ZL13training_data, i64 0, i64 113), i64 18080240442368)
  call void @_ZN7ap_uintILi49EEC1El(%struct.ap_uint* getelementptr inbounds ([18000 x %struct.ap_uint]* @_ZL13training_data, i64 0, i64 114), i64 419871100416)
  call void @_ZN7ap_uintILi49EEC1El(%struct.ap_uint* getelementptr inbounds ([18000 x %struct.ap_uint]* @_ZL13training_data, i64 0, i64 115), i64 973420924672)
  call void @_ZN7ap_uintILi49EEC1El(%struct.ap_uint* getelementptr inbounds ([18000 x %struct.ap_uint]* @_ZL13training_data, i64 0, i64 116), i64 420475411968)
  call void @_ZN7ap_uintILi49EEC1El(%struct.ap_uint* getelementptr inbounds ([18000 x %struct.ap_uint]* @_ZL13training_data, i64 0, i64 117), i64 280288890376)
  call void @_ZN7ap_uintILi49EEC1El(%struct.ap_uint* getelementptr inbounds ([18000 x %struct.ap_uint]* @_ZL13training_data, i64 0, i64 118), i64 966976376576)
  call void @_ZN7ap_uintILi49EEC1El(%struct.ap_uint* getelementptr inbounds ([18000 x %struct.ap_uint]* @_ZL13training_data, i64 0, i64 119), i64 208881556480)
  call void @_ZN7ap_uintILi49EEC1El(%struct.ap_uint* getelementptr inbounds ([18000 x %struct.ap_uint]* @_ZL13training_data, i64 0, i64 120), i64 489203506192)
  call void @_ZN7ap_uintILi49EEC1El(%struct.ap_uint* getelementptr inbounds ([18000 x %struct.ap_uint]* @_ZL13training_data, i64 0, i64 121), i64 970172763656)
  call void @_ZN7ap_uintILi49EEC1El(%struct.ap_uint* getelementptr inbounds ([18000 x %struct.ap_uint]* @_ZL13training_data, i64 0, i64 122), i64 829504196096)
  call void @_ZN7ap_uintILi49EEC1El(%struct.ap_uint* getelementptr inbounds ([18000 x %struct.ap_uint]* @_ZL13training_data, i64 0, i64 123), i64 417220566528)
  call void @_ZN7ap_uintILi49EEC1El(%struct.ap_uint* getelementptr inbounds ([18000 x %struct.ap_uint]* @_ZL13training_data, i64 0, i64 124), i64 71442209792)
  call void @_ZN7ap_uintILi49EEC1El(%struct.ap_uint* getelementptr inbounds ([18000 x %struct.ap_uint]* @_ZL13training_data, i64 0, i64 125), i64 692131827200)
  call void @_ZN7ap_uintILi49EEC1El(%struct.ap_uint* getelementptr inbounds ([18000 x %struct.ap_uint]* @_ZL13training_data, i64 0, i64 126), i64 1044287888896)
  call void @_ZN7ap_uintILi49EEC1El(%struct.ap_uint* getelementptr inbounds ([18000 x %struct.ap_uint]* @_ZL13training_data, i64 0, i64 127), i64 488054004736)
  call void @_ZN7ap_uintILi49EEC1El(%struct.ap_uint* getelementptr inbounds ([18000 x %struct.ap_uint]* @_ZL13training_data, i64 0, i64 128), i64 420416916992)
  call void @_ZN7ap_uintILi49EEC1El(%struct.ap_uint* getelementptr inbounds ([18000 x %struct.ap_uint]* @_ZL13training_data, i64 0, i64 129), i64 419880046080)
  call void @_ZN7ap_uintILi49EEC1El(%struct.ap_uint* getelementptr inbounds ([18000 x %struct.ap_uint]* @_ZL13training_data, i64 0, i64 130), i64 419875326976)
  call void @_ZN7ap_uintILi49EEC1El(%struct.ap_uint* getelementptr inbounds ([18000 x %struct.ap_uint]* @_ZL13training_data, i64 0, i64 131), i64 283038764800)
  call void @_ZN7ap_uintILi49EEC1El(%struct.ap_uint* getelementptr inbounds ([18000 x %struct.ap_uint]* @_ZL13training_data, i64 0, i64 132), i64 419343305728)
  call void @_ZN7ap_uintILi49EEC1El(%struct.ap_uint* getelementptr inbounds ([18000 x %struct.ap_uint]* @_ZL13training_data, i64 0, i64 133), i64 488054300160)
  call void @_ZN7ap_uintILi49EEC1El(%struct.ap_uint* getelementptr inbounds ([18000 x %struct.ap_uint]* @_ZL13training_data, i64 0, i64 134), i64 977713864192)
  call void @_ZN7ap_uintILi49EEC1Ej(%struct.ap_uint* getelementptr inbounds ([18000 x %struct.ap_uint]* @_ZL13training_data, i64 0, i64 135), i32 -431030272)
  call void @_ZN7ap_uintILi49EEC1El(%struct.ap_uint* getelementptr inbounds ([18000 x %struct.ap_uint]* @_ZL13training_data, i64 0, i64 136), i64 967483788800)
  call void @_ZN7ap_uintILi49EEC1El(%struct.ap_uint* getelementptr inbounds ([18000 x %struct.ap_uint]* @_ZL13training_data, i64 0, i64 137), i64 415580359680)
  call void @_ZN7ap_uintILi49EEC1El(%struct.ap_uint* getelementptr inbounds ([18000 x %struct.ap_uint]* @_ZL13training_data, i64 0, i64 138), i64 419334261760)
  call void @_ZN7ap_uintILi49EEC1El(%struct.ap_uint* getelementptr inbounds ([18000 x %struct.ap_uint]* @_ZL13training_data, i64 0, i64 139), i64 417222663680)
  call void @_ZN7ap_uintILi49EEC1El(%struct.ap_uint* getelementptr inbounds ([18000 x %struct.ap_uint]* @_ZL13training_data, i64 0, i64 140), i64 417795214848)
  call void @_ZN7ap_uintILi49EEC1El(%struct.ap_uint* getelementptr inbounds ([18000 x %struct.ap_uint]* @_ZL13training_data, i64 0, i64 141), i64 209963392000)
  call void @_ZN7ap_uintILi49EEC1El(%struct.ap_uint* getelementptr inbounds ([18000 x %struct.ap_uint]* @_ZL13training_data, i64 0, i64 142), i64 420408303120)
  call void @_ZN7ap_uintILi49EEC1El(%struct.ap_uint* getelementptr inbounds ([18000 x %struct.ap_uint]* @_ZL13training_data, i64 0, i64 143), i64 141256100864)
  call void @_ZN7ap_uintILi49EEC1El(%struct.ap_uint* getelementptr inbounds ([18000 x %struct.ap_uint]* @_ZL13training_data, i64 0, i64 144), i64 420475411968)
  call void @_ZN7ap_uintILi49EEC1El(%struct.ap_uint* getelementptr inbounds ([18000 x %struct.ap_uint]* @_ZL13training_data, i64 0, i64 145), i64 557880806400)
  call void @_ZN7ap_uintILi49EEC1El(%struct.ap_uint* getelementptr inbounds ([18000 x %struct.ap_uint]* @_ZL13training_data, i64 0, i64 146), i64 488053738496)
  call void @_ZN7ap_uintILi49EEC1El(%struct.ap_uint* getelementptr inbounds ([18000 x %struct.ap_uint]* @_ZL13training_data, i64 0, i64 147), i64 420475674112)
  call void @_ZN7ap_uintILi49EEC1El(%struct.ap_uint* getelementptr inbounds ([18000 x %struct.ap_uint]* @_ZL13training_data, i64 0, i64 148), i64 968016891392)
  call void @_ZN7ap_uintILi49EEC1El(%struct.ap_uint* getelementptr inbounds ([18000 x %struct.ap_uint]* @_ZL13training_data, i64 0, i64 149), i64 489195281408)
  call void @_ZN7ap_uintILi49EEC1El(%struct.ap_uint* getelementptr inbounds ([18000 x %struct.ap_uint]* @_ZL13training_data, i64 0, i64 150), i64 830577413632)
  call void @_ZN7ap_uintILi49EEC1El(%struct.ap_uint* getelementptr inbounds ([18000 x %struct.ap_uint]* @_ZL13training_data, i64 0, i64 151), i64 420416425472)
  call void @_ZN7ap_uintILi49EEC1El(%struct.ap_uint* getelementptr inbounds ([18000 x %struct.ap_uint]* @_ZL13training_data, i64 0, i64 152), i64 489132334080)
  call void @_ZN7ap_uintILi49EEC1El(%struct.ap_uint* getelementptr inbounds ([18000 x %struct.ap_uint]* @_ZL13training_data, i64 0, i64 153), i64 419334528512)
  call void @_ZN7ap_uintILi49EEC1El(%struct.ap_uint* getelementptr inbounds ([18000 x %struct.ap_uint]* @_ZL13training_data, i64 0, i64 154), i64 208885058560)
  call void @_ZN7ap_uintILi49EEC1El(%struct.ap_uint* getelementptr inbounds ([18000 x %struct.ap_uint]* @_ZL13training_data, i64 0, i64 155), i64 351688760320)
  call void @_ZN7ap_uintILi49EEC1El(%struct.ap_uint* getelementptr inbounds ([18000 x %struct.ap_uint]* @_ZL13training_data, i64 0, i64 156), i64 291628879360)
  call void @_ZN7ap_uintILi49EEC1El(%struct.ap_uint* getelementptr inbounds ([18000 x %struct.ap_uint]* @_ZL13training_data, i64 0, i64 157), i64 489220414464)
  call void @_ZN7ap_uintILi49EEC1El(%struct.ap_uint* getelementptr inbounds ([18000 x %struct.ap_uint]* @_ZL13training_data, i64 0, i64 158), i64 416117230592)
  call void @_ZN7ap_uintILi49EEC1El(%struct.ap_uint* getelementptr inbounds ([18000 x %struct.ap_uint]* @_ZL13training_data, i64 0, i64 159), i64 489161334272)
  call void @_ZN7ap_uintILi49EEC1El(%struct.ap_uint* getelementptr inbounds ([18000 x %struct.ap_uint]* @_ZL13training_data, i64 0, i64 160), i64 489144950272)
  call void @_ZN7ap_uintILi49EEC1El(%struct.ap_uint* getelementptr inbounds ([18000 x %struct.ap_uint]* @_ZL13training_data, i64 0, i64 161), i64 967513247232)
  call void @_ZN7ap_uintILi49EEC1El(%struct.ap_uint* getelementptr inbounds ([18000 x %struct.ap_uint]* @_ZL13training_data, i64 0, i64 162), i64 978790092288)
  call void @_ZN7ap_uintILi49EEC1El(%struct.ap_uint* getelementptr inbounds ([18000 x %struct.ap_uint]* @_ZL13training_data, i64 0, i64 163), i64 420484160528)
  call void @_ZN7ap_uintILi49EEC1El(%struct.ap_uint* getelementptr inbounds ([18000 x %struct.ap_uint]* @_ZL13training_data, i64 0, i64 164), i64 419879521792)
  call void @_ZN7ap_uintILi49EEC1El(%struct.ap_uint* getelementptr inbounds ([18000 x %struct.ap_uint]* @_ZL13training_data, i64 0, i64 165), i64 484858203136)
  call void @_ZN7ap_uintILi49EEC1El(%struct.ap_uint* getelementptr inbounds ([18000 x %struct.ap_uint]* @_ZL13training_data, i64 0, i64 166), i64 417728368128)
  call void @_ZN7ap_uintILi49EEC1El(%struct.ap_uint* getelementptr inbounds ([18000 x %struct.ap_uint]* @_ZL13training_data, i64 0, i64 167), i64 966951111680)
  call void @_ZN7ap_uintILi49EEC1El(%struct.ap_uint* getelementptr inbounds ([18000 x %struct.ap_uint]* @_ZL13training_data, i64 0, i64 168), i64 832230231552)
  call void @_ZN7ap_uintILi49EEC1El(%struct.ap_uint* getelementptr inbounds ([18000 x %struct.ap_uint]* @_ZL13training_data, i64 0, i64 169), i64 966976114176)
  call void @_ZN7ap_uintILi49EEC1El(%struct.ap_uint* getelementptr inbounds ([18000 x %struct.ap_uint]* @_ZL13training_data, i64 0, i64 170), i64 489195150848)
  call void @_ZN7ap_uintILi49EEC1El(%struct.ap_uint* getelementptr inbounds ([18000 x %struct.ap_uint]* @_ZL13training_data, i64 0, i64 171), i64 416130337792)
  call void @_ZN7ap_uintILi49EEC1El(%struct.ap_uint* getelementptr inbounds ([18000 x %struct.ap_uint]* @_ZL13training_data, i64 0, i64 172), i64 420500246272)
  call void @_ZN7ap_uintILi49EEC1El(%struct.ap_uint* getelementptr inbounds ([18000 x %struct.ap_uint]* @_ZL13training_data, i64 0, i64 173), i64 968050122496)
  call void @_ZN7ap_uintILi49EEC1El(%struct.ap_uint* getelementptr inbounds ([18000 x %struct.ap_uint]* @_ZL13training_data, i64 0, i64 174), i64 420483800576)
  call void @_ZN7ap_uintILi49EEC1El(%struct.ap_uint* getelementptr inbounds ([18000 x %struct.ap_uint]* @_ZL13training_data, i64 0, i64 175), i64 419403767296)
  call void @_ZN7ap_uintILi49EEC1El(%struct.ap_uint* getelementptr inbounds ([18000 x %struct.ap_uint]* @_ZL13training_data, i64 0, i64 176), i64 420483767808)
  call void @_ZN7ap_uintILi49EEC1El(%struct.ap_uint* getelementptr inbounds ([18000 x %struct.ap_uint]* @_ZL13training_data, i64 0, i64 177), i64 420408565248)
  call void @_ZN7ap_uintILi49EEC1El(%struct.ap_uint* getelementptr inbounds ([18000 x %struct.ap_uint]* @_ZL13training_data, i64 0, i64 178), i64 419871100416)
  call void @_ZN7ap_uintILi49EEC1El(%struct.ap_uint* getelementptr inbounds ([18000 x %struct.ap_uint]* @_ZL13training_data, i64 0, i64 179), i64 420417080832)
  call void @_ZN7ap_uintILi49EEC1El(%struct.ap_uint* getelementptr inbounds ([18000 x %struct.ap_uint]* @_ZL13training_data, i64 0, i64 180), i64 420408303104)
  call void @_ZN7ap_uintILi49EEC1El(%struct.ap_uint* getelementptr inbounds ([18000 x %struct.ap_uint]* @_ZL13training_data, i64 0, i64 181), i64 968083934720)
  call void @_ZN7ap_uintILi49EEC1El(%struct.ap_uint* getelementptr inbounds ([18000 x %struct.ap_uint]* @_ZL13training_data, i64 0, i64 182), i64 208881130496)
  call void @_ZN7ap_uintILi49EEC1El(%struct.ap_uint* getelementptr inbounds ([18000 x %struct.ap_uint]* @_ZL13training_data, i64 0, i64 183), i64 1042136469256)
  call void @_ZN7ap_uintILi49EEC1El(%struct.ap_uint* getelementptr inbounds ([18000 x %struct.ap_uint]* @_ZL13training_data, i64 0, i64 184), i64 14609776640)
  call void @_ZN7ap_uintILi49EEC1El(%struct.ap_uint* getelementptr inbounds ([18000 x %struct.ap_uint]* @_ZL13training_data, i64 0, i64 185), i64 283002834432)
  call void @_ZN7ap_uintILi49EEC1El(%struct.ap_uint* getelementptr inbounds ([18000 x %struct.ap_uint]* @_ZL13training_data, i64 0, i64 186), i64 420475542528)
  call void @_ZN7ap_uintILi49EEC1El(%struct.ap_uint* getelementptr inbounds ([18000 x %struct.ap_uint]* @_ZL13training_data, i64 0, i64 187), i64 970239876608)
  call void @_ZN7ap_uintILi49EEC1El(%struct.ap_uint* getelementptr inbounds ([18000 x %struct.ap_uint]* @_ZL13training_data, i64 0, i64 188), i64 418264714240)
  call void @_ZN7ap_uintILi49EEC1El(%struct.ap_uint* getelementptr inbounds ([18000 x %struct.ap_uint]* @_ZL13training_data, i64 0, i64 189), i64 970239872776)
  call void @_ZN7ap_uintILi49EEC1El(%struct.ap_uint* getelementptr inbounds ([18000 x %struct.ap_uint]* @_ZL13training_data, i64 0, i64 190), i64 8127483392)
  call void @_ZN7ap_uintILi49EEC1El(%struct.ap_uint* getelementptr inbounds ([18000 x %struct.ap_uint]* @_ZL13training_data, i64 0, i64 191), i64 419351137792)
  call void @_ZN7ap_uintILi49EEC1El(%struct.ap_uint* getelementptr inbounds ([18000 x %struct.ap_uint]* @_ZL13training_data, i64 0, i64 192), i64 282436374016)
  call void @_ZN7ap_uintILi49EEC1El(%struct.ap_uint* getelementptr inbounds ([18000 x %struct.ap_uint]* @_ZL13training_data, i64 0, i64 193), i64 425810497024)
  call void @_ZN7ap_uintILi49EEC1El(%struct.ap_uint* getelementptr inbounds ([18000 x %struct.ap_uint]* @_ZL13training_data, i64 0, i64 194), i64 489169722880)
  call void @_ZN7ap_uintILi49EEC1El(%struct.ap_uint* getelementptr inbounds ([18000 x %struct.ap_uint]* @_ZL13training_data, i64 0, i64 195), i64 418260487680)
  call void @_ZN7ap_uintILi49EEC1El(%struct.ap_uint* getelementptr inbounds ([18000 x %struct.ap_uint]* @_ZL13training_data, i64 0, i64 196), i64 419896462848)
  call void @_ZN7ap_uintILi49EEC1El(%struct.ap_uint* getelementptr inbounds ([18000 x %struct.ap_uint]* @_ZL13training_data, i64 0, i64 197), i64 420425342464)
  call void @_ZN7ap_uintILi49EEC1El(%struct.ap_uint* getelementptr inbounds ([18000 x %struct.ap_uint]* @_ZL13training_data, i64 0, i64 198), i64 967010262528)
  call void @_ZN7ap_uintILi49EEC1El(%struct.ap_uint* getelementptr inbounds ([18000 x %struct.ap_uint]* @_ZL13training_data, i64 0, i64 199), i64 488054004736)
  call void @_ZN7ap_uintILi49EEC1El(%struct.ap_uint* getelementptr inbounds ([18000 x %struct.ap_uint]* @_ZL13training_data, i64 0, i64 200), i64 978821353216)
  call void @_ZN7ap_uintILi49EEC1El(%struct.ap_uint* getelementptr inbounds ([18000 x %struct.ap_uint]* @_ZL13training_data, i64 0, i64 201), i64 209963654144)
  call void @_ZN7ap_uintILi49EEC1El(%struct.ap_uint* getelementptr inbounds ([18000 x %struct.ap_uint]* @_ZL13training_data, i64 0, i64 202), i64 968016301568)
  call void @_ZN7ap_uintILi49EEC1El(%struct.ap_uint* getelementptr inbounds ([18000 x %struct.ap_uint]* @_ZL13training_data, i64 0, i64 203), i64 830040477184)
  call void @_ZN7ap_uintILi49EEC1El(%struct.ap_uint* getelementptr inbounds ([18000 x %struct.ap_uint]* @_ZL13training_data, i64 0, i64 204), i64 420408004096)
  call void @_ZN7ap_uintILi49EEC1El(%struct.ap_uint* getelementptr inbounds ([18000 x %struct.ap_uint]* @_ZL13training_data, i64 0, i64 205), i64 420484058624)
  call void @_ZN7ap_uintILi49EEC1El(%struct.ap_uint* getelementptr inbounds ([18000 x %struct.ap_uint]* @_ZL13training_data, i64 0, i64 206), i64 419334823424)
  call void @_ZN7ap_uintILi49EEC1El(%struct.ap_uint* getelementptr inbounds ([18000 x %struct.ap_uint]* @_ZL13training_data, i64 0, i64 207), i64 417732562432)
  call void @_ZN7ap_uintILi49EEC1El(%struct.ap_uint* getelementptr inbounds ([18000 x %struct.ap_uint]* @_ZL13training_data, i64 0, i64 208), i64 145597863936)
  call void @_ZN7ap_uintILi49EEC1El(%struct.ap_uint* getelementptr inbounds ([18000 x %struct.ap_uint]* @_ZL13training_data, i64 0, i64 209), i64 976640052736)
  call void @_ZN7ap_uintILi49EEC1El(%struct.ap_uint* getelementptr inbounds ([18000 x %struct.ap_uint]* @_ZL13training_data, i64 0, i64 210), i64 8158938112)
  call void @_ZN7ap_uintILi49EEC1El(%struct.ap_uint* getelementptr inbounds ([18000 x %struct.ap_uint]* @_ZL13training_data, i64 0, i64 211), i64 2078299491840)
  call void @_ZN7ap_uintILi49EEC1El(%struct.ap_uint* getelementptr inbounds ([18000 x %struct.ap_uint]* @_ZL13training_data, i64 0, i64 212), i64 419875327488)
  call void @_ZN7ap_uintILi49EEC1El(%struct.ap_uint* getelementptr inbounds ([18000 x %struct.ap_uint]* @_ZL13training_data, i64 0, i64 213), i64 489136528384)
  call void @_ZN7ap_uintILi49EEC1El(%struct.ap_uint* getelementptr inbounds ([18000 x %struct.ap_uint]* @_ZL13training_data, i64 0, i64 214), i64 145530657792)
  call void @_ZN7ap_uintILi49EEC1El(%struct.ap_uint* getelementptr inbounds ([18000 x %struct.ap_uint]* @_ZL13training_data, i64 0, i64 215), i64 415580360192)
  call void @_ZN7ap_uintILi49EEC1El(%struct.ap_uint* getelementptr inbounds ([18000 x %struct.ap_uint]* @_ZL13training_data, i64 0, i64 216), i64 417727843840)
  call void @_ZN7ap_uintILi49EEC1El(%struct.ap_uint* getelementptr inbounds ([18000 x %struct.ap_uint]* @_ZL13training_data, i64 0, i64 217), i64 419401666048)
  call void @_ZN7ap_uintILi49EEC1El(%struct.ap_uint* getelementptr inbounds ([18000 x %struct.ap_uint]* @_ZL13training_data, i64 0, i64 218), i64 419871100416)
  call void @_ZN7ap_uintILi49EEC1El(%struct.ap_uint* getelementptr inbounds ([18000 x %struct.ap_uint]* @_ZL13training_data, i64 0, i64 219), i64 419368046080)
  call void @_ZN7ap_uintILi49EEC1El(%struct.ap_uint* getelementptr inbounds ([18000 x %struct.ap_uint]* @_ZL13training_data, i64 0, i64 220), i64 420441788160)
  call void @_ZN7ap_uintILi49EEC1El(%struct.ap_uint* getelementptr inbounds ([18000 x %struct.ap_uint]* @_ZL13training_data, i64 0, i64 221), i64 488121146880)
  call void @_ZN7ap_uintILi49EEC1El(%struct.ap_uint* getelementptr inbounds ([18000 x %struct.ap_uint]* @_ZL13training_data, i64 0, i64 222), i64 419879521280)
  call void @_ZN7ap_uintILi49EEC1El(%struct.ap_uint* getelementptr inbounds ([18000 x %struct.ap_uint]* @_ZL13training_data, i64 0, i64 223), i64 488632847872)
  call void @_ZN7ap_uintILi49EEC1El(%struct.ap_uint* getelementptr inbounds ([18000 x %struct.ap_uint]* @_ZL13training_data, i64 0, i64 224), i64 417220632064)
  call void @_ZN7ap_uintILi49EEC1El(%struct.ap_uint* getelementptr inbounds ([18000 x %struct.ap_uint]* @_ZL13training_data, i64 0, i64 225), i64 489128008704)
  call void @_ZN7ap_uintILi49EEC1El(%struct.ap_uint* getelementptr inbounds ([18000 x %struct.ap_uint]* @_ZL13training_data, i64 0, i64 226), i64 420475604744)
  call void @_ZN7ap_uintILi49EEC1El(%struct.ap_uint* getelementptr inbounds ([18000 x %struct.ap_uint]* @_ZL13training_data, i64 0, i64 227), i64 283002834432)
  call void @_ZN7ap_uintILi49EEC1El(%struct.ap_uint* getelementptr inbounds ([18000 x %struct.ap_uint]* @_ZL13training_data, i64 0, i64 228), i64 967546539520)
  call void @_ZN7ap_uintILi49EEC1El(%struct.ap_uint* getelementptr inbounds ([18000 x %struct.ap_uint]* @_ZL13training_data, i64 0, i64 229), i64 420412197888)
  call void @_ZN7ap_uintILi49EEC1El(%struct.ap_uint* getelementptr inbounds ([18000 x %struct.ap_uint]* @_ZL13training_data, i64 0, i64 230), i64 8125187840)
  call void @_ZN7ap_uintILi49EEC1El(%struct.ap_uint* getelementptr inbounds ([18000 x %struct.ap_uint]* @_ZL13training_data, i64 0, i64 231), i64 282968985088)
  call void @_ZN7ap_uintILi49EEC1El(%struct.ap_uint* getelementptr inbounds ([18000 x %struct.ap_uint]* @_ZL13training_data, i64 0, i64 232), i64 969123859976)
  call void @_ZN7ap_uintILi49EEC1El(%struct.ap_uint* getelementptr inbounds ([18000 x %struct.ap_uint]* @_ZL13training_data, i64 0, i64 233), i64 830111780608)
  call void @_ZN7ap_uintILi49EEC1El(%struct.ap_uint* getelementptr inbounds ([18000 x %struct.ap_uint]* @_ZL13training_data, i64 0, i64 234), i64 978293067520)
  call void @_ZN7ap_uintILi49EEC1El(%struct.ap_uint* getelementptr inbounds ([18000 x %struct.ap_uint]* @_ZL13training_data, i64 0, i64 235), i64 214325468160)
  call void @_ZN7ap_uintILi49EEC1El(%struct.ap_uint* getelementptr inbounds ([18000 x %struct.ap_uint]* @_ZL13training_data, i64 0, i64 236), i64 969635368448)
  call void @_ZN7ap_uintILi49EEC1El(%struct.ap_uint* getelementptr inbounds ([18000 x %struct.ap_uint]* @_ZL13training_data, i64 0, i64 237), i64 489211928064)
  call void @_ZN7ap_uintILi49EEC1El(%struct.ap_uint* getelementptr inbounds ([18000 x %struct.ap_uint]* @_ZL13training_data, i64 0, i64 238), i64 420408233472)
  call void @_ZN7ap_uintILi49EEC1El(%struct.ap_uint* getelementptr inbounds ([18000 x %struct.ap_uint]* @_ZL13training_data, i64 0, i64 239), i64 488595332608)
  call void @_ZN7ap_uintILi49EEC1El(%struct.ap_uint* getelementptr inbounds ([18000 x %struct.ap_uint]* @_ZL13training_data, i64 0, i64 240), i64 1045393411584)
  call void @_ZN7ap_uintILi49EEC1El(%struct.ap_uint* getelementptr inbounds ([18000 x %struct.ap_uint]* @_ZL13training_data, i64 0, i64 241), i64 429032185344)
  call void @_ZN7ap_uintILi49EEC1El(%struct.ap_uint* getelementptr inbounds ([18000 x %struct.ap_uint]* @_ZL13training_data, i64 0, i64 242), i64 418327927808)
  call void @_ZN7ap_uintILi49EEC1El(%struct.ap_uint* getelementptr inbounds ([18000 x %struct.ap_uint]* @_ZL13training_data, i64 0, i64 243), i64 420475670016)
  call void @_ZN7ap_uintILi49EEC1El(%struct.ap_uint* getelementptr inbounds ([18000 x %struct.ap_uint]* @_ZL13training_data, i64 0, i64 244), i64 419846622720)
  call void @_ZN7ap_uintILi49EEC1Ej(%struct.ap_uint* getelementptr inbounds ([18000 x %struct.ap_uint]* @_ZL13training_data, i64 0, i64 245), i32 -1031405568)
  call void @_ZN7ap_uintILi49EEC1El(%struct.ap_uint* getelementptr inbounds ([18000 x %struct.ap_uint]* @_ZL13training_data, i64 0, i64 246), i64 420408658944)
  call void @_ZN7ap_uintILi49EEC1El(%struct.ap_uint* getelementptr inbounds ([18000 x %struct.ap_uint]* @_ZL13training_data, i64 0, i64 247), i64 429006884352)
  call void @_ZN7ap_uintILi49EEC1El(%struct.ap_uint* getelementptr inbounds ([18000 x %struct.ap_uint]* @_ZL13training_data, i64 0, i64 248), i64 282448989696)
  call void @_ZN7ap_uintILi49EEC1El(%struct.ap_uint* getelementptr inbounds ([18000 x %struct.ap_uint]* @_ZL13training_data, i64 0, i64 249), i64 420484189696)
  call void @_ZN7ap_uintILi49EEC1Ej(%struct.ap_uint* getelementptr inbounds ([18000 x %struct.ap_uint]* @_ZL13training_data, i64 0, i64 250), i32 -489748480)
  call void @_ZN7ap_uintILi49EEC1El(%struct.ap_uint* getelementptr inbounds ([18000 x %struct.ap_uint]* @_ZL13training_data, i64 0, i64 251), i64 209980431360)
  call void @_ZN7ap_uintILi49EEC1El(%struct.ap_uint* getelementptr inbounds ([18000 x %struct.ap_uint]* @_ZL13training_data, i64 0, i64 252), i64 966942559744)
  call void @_ZN7ap_uintILi49EEC1El(%struct.ap_uint* getelementptr inbounds ([18000 x %struct.ap_uint]* @_ZL13training_data, i64 0, i64 253), i64 417732037632)
  call void @_ZN7ap_uintILi49EEC1El(%struct.ap_uint* getelementptr inbounds ([18000 x %struct.ap_uint]* @_ZL13training_data, i64 0, i64 254), i64 420433202696)
  call void @_ZN7ap_uintILi49EEC1El(%struct.ap_uint* getelementptr inbounds ([18000 x %struct.ap_uint]* @_ZL13training_data, i64 0, i64 255), i64 72537283584)
  call void @_ZN7ap_uintILi49EEC1El(%struct.ap_uint* getelementptr inbounds ([18000 x %struct.ap_uint]* @_ZL13training_data, i64 0, i64 256), i64 968016301568)
  call void @_ZN7ap_uintILi49EEC1El(%struct.ap_uint* getelementptr inbounds ([18000 x %struct.ap_uint]* @_ZL13training_data, i64 0, i64 257), i64 429076221440)
  call void @_ZN7ap_uintILi49EEC1El(%struct.ap_uint* getelementptr inbounds ([18000 x %struct.ap_uint]* @_ZL13training_data, i64 0, i64 258), i64 280288890368)
  call void @_ZN7ap_uintILi49EEC1El(%struct.ap_uint* getelementptr inbounds ([18000 x %struct.ap_uint]* @_ZL13training_data, i64 0, i64 259), i64 419879521280)
  call void @_ZN7ap_uintILi49EEC1El(%struct.ap_uint* getelementptr inbounds ([18000 x %struct.ap_uint]* @_ZL13training_data, i64 0, i64 260), i64 280288889856)
  call void @_ZN7ap_uintILi49EEC1El(%struct.ap_uint* getelementptr inbounds ([18000 x %struct.ap_uint]* @_ZL13training_data, i64 0, i64 261), i64 419879521792)
  call void @_ZN7ap_uintILi49EEC1El(%struct.ap_uint* getelementptr inbounds ([18000 x %struct.ap_uint]* @_ZL13training_data, i64 0, i64 262), i64 489136528384)
  call void @_ZN7ap_uintILi49EEC1El(%struct.ap_uint* getelementptr inbounds ([18000 x %struct.ap_uint]* @_ZL13training_data, i64 0, i64 263), i64 970231418632)
  call void @_ZN7ap_uintILi49EEC1El(%struct.ap_uint* getelementptr inbounds ([18000 x %struct.ap_uint]* @_ZL13training_data, i64 0, i64 264), i64 420446244608)
  call void @_ZN7ap_uintILi49EEC1El(%struct.ap_uint* getelementptr inbounds ([18000 x %struct.ap_uint]* @_ZL13training_data, i64 0, i64 265), i64 968016498176)
  call void @_ZN7ap_uintILi49EEC1El(%struct.ap_uint* getelementptr inbounds ([18000 x %struct.ap_uint]* @_ZL13training_data, i64 0, i64 266), i64 970172472832)
  call void @_ZN7ap_uintILi49EEC1El(%struct.ap_uint* getelementptr inbounds ([18000 x %struct.ap_uint]* @_ZL13training_data, i64 0, i64 267), i64 420433169920)
  call void @_ZN7ap_uintILi49EEC1El(%struct.ap_uint* getelementptr inbounds ([18000 x %struct.ap_uint]* @_ZL13training_data, i64 0, i64 268), i64 145597863936)
  call void @_ZN7ap_uintILi49EEC1El(%struct.ap_uint* getelementptr inbounds ([18000 x %struct.ap_uint]* @_ZL13training_data, i64 0, i64 269), i64 419401862656)
  call void @_ZN7ap_uintILi49EEC1El(%struct.ap_uint* getelementptr inbounds ([18000 x %struct.ap_uint]* @_ZL13training_data, i64 0, i64 270), i64 419334229504)
  call void @_ZN7ap_uintILi49EEC1El(%struct.ap_uint* getelementptr inbounds ([18000 x %struct.ap_uint]* @_ZL13training_data, i64 0, i64 271), i64 429032180736)
  call void @_ZN7ap_uintILi49EEC1El(%struct.ap_uint* getelementptr inbounds ([18000 x %struct.ap_uint]* @_ZL13training_data, i64 0, i64 272), i64 976640315136)
  call void @_ZN7ap_uintILi49EEC1El(%struct.ap_uint* getelementptr inbounds ([18000 x %struct.ap_uint]* @_ZL13training_data, i64 0, i64 273), i64 970172763648)
  call void @_ZN7ap_uintILi49EEC1El(%struct.ap_uint* getelementptr inbounds ([18000 x %struct.ap_uint]* @_ZL13training_data, i64 0, i64 274), i64 214249840128)
  call void @_ZN7ap_uintILi49EEC1El(%struct.ap_uint* getelementptr inbounds ([18000 x %struct.ap_uint]* @_ZL13training_data, i64 0, i64 275), i64 488054266880)
  call void @_ZN7ap_uintILi49EEC1El(%struct.ap_uint* getelementptr inbounds ([18000 x %struct.ap_uint]* @_ZL13training_data, i64 0, i64 276), i64 280288923136)
  call void @_ZN7ap_uintILi49EEC1El(%struct.ap_uint* getelementptr inbounds ([18000 x %struct.ap_uint]* @_ZL13training_data, i64 0, i64 277), i64 839201099520)
  call void @_ZN7ap_uintILi49EEC1El(%struct.ap_uint* getelementptr inbounds ([18000 x %struct.ap_uint]* @_ZL13training_data, i64 0, i64 278), i64 489195281408)
  call void @_ZN7ap_uintILi49EEC1El(%struct.ap_uint* getelementptr inbounds ([18000 x %struct.ap_uint]* @_ZL13training_data, i64 0, i64 279), i64 418328120832)
  call void @_ZN7ap_uintILi49EEC1El(%struct.ap_uint* getelementptr inbounds ([18000 x %struct.ap_uint]* @_ZL13training_data, i64 0, i64 280), i64 140702977024)
  call void @_ZN7ap_uintILi49EEC1El(%struct.ap_uint* getelementptr inbounds ([18000 x %struct.ap_uint]* @_ZL13training_data, i64 0, i64 281), i64 832791940608)
  call void @_ZN7ap_uintILi49EEC1El(%struct.ap_uint* getelementptr inbounds ([18000 x %struct.ap_uint]* @_ZL13training_data, i64 0, i64 282), i64 420475604480)
  call void @_ZN7ap_uintILi49EEC1El(%struct.ap_uint* getelementptr inbounds ([18000 x %struct.ap_uint]* @_ZL13training_data, i64 0, i64 283), i64 419875326976)
  call void @_ZN7ap_uintILi49EEC1El(%struct.ap_uint* getelementptr inbounds ([18000 x %struct.ap_uint]* @_ZL13training_data, i64 0, i64 284), i64 141251910656)
  call void @_ZN7ap_uintILi49EEC1El(%struct.ap_uint* getelementptr inbounds ([18000 x %struct.ap_uint]* @_ZL13training_data, i64 0, i64 285), i64 209959459840)
  call void @_ZN7ap_uintILi49EEC1El(%struct.ap_uint* getelementptr inbounds ([18000 x %struct.ap_uint]* @_ZL13training_data, i64 0, i64 286), i64 8127349760)
  call void @_ZN7ap_uintILi49EEC1El(%struct.ap_uint* getelementptr inbounds ([18000 x %struct.ap_uint]* @_ZL13training_data, i64 0, i64 287), i64 488121146880)
  call void @_ZN7ap_uintILi49EEC1El(%struct.ap_uint* getelementptr inbounds ([18000 x %struct.ap_uint]* @_ZL13training_data, i64 0, i64 288), i64 419334786048)
  call void @_ZN7ap_uintILi49EEC1El(%struct.ap_uint* getelementptr inbounds ([18000 x %struct.ap_uint]* @_ZL13training_data, i64 0, i64 289), i64 420416396816)
  call void @_ZN7ap_uintILi49EEC1El(%struct.ap_uint* getelementptr inbounds ([18000 x %struct.ap_uint]* @_ZL13training_data, i64 0, i64 290), i64 967010192896)
  call void @_ZN7ap_uintILi49EEC1El(%struct.ap_uint* getelementptr inbounds ([18000 x %struct.ap_uint]* @_ZL13training_data, i64 0, i64 291), i64 417187077632)
  call void @_ZN7ap_uintILi49EEC1El(%struct.ap_uint* getelementptr inbounds ([18000 x %struct.ap_uint]* @_ZL13training_data, i64 0, i64 292), i64 420416949760)
  call void @_ZN7ap_uintILi49EEC1El(%struct.ap_uint* getelementptr inbounds ([18000 x %struct.ap_uint]* @_ZL13training_data, i64 0, i64 293), i64 420416953856)
  call void @_ZN7ap_uintILi49EEC1El(%struct.ap_uint* getelementptr inbounds ([18000 x %struct.ap_uint]* @_ZL13training_data, i64 0, i64 294), i64 830074556160)
  call void @_ZN7ap_uintILi49EEC1El(%struct.ap_uint* getelementptr inbounds ([18000 x %struct.ap_uint]* @_ZL13training_data, i64 0, i64 295), i64 429034147328)
  call void @_ZN7ap_uintILi49EEC1El(%struct.ap_uint* getelementptr inbounds ([18000 x %struct.ap_uint]* @_ZL13training_data, i64 0, i64 296), i64 419403697920)
  call void @_ZN7ap_uintILi49EEC1El(%struct.ap_uint* getelementptr inbounds ([18000 x %struct.ap_uint]* @_ZL13training_data, i64 0, i64 297), i64 419896958464)
  call void @_ZN7ap_uintILi49EEC1El(%struct.ap_uint* getelementptr inbounds ([18000 x %struct.ap_uint]* @_ZL13training_data, i64 0, i64 298), i64 1037877218816)
  call void @_ZN7ap_uintILi49EEC1El(%struct.ap_uint* getelementptr inbounds ([18000 x %struct.ap_uint]* @_ZL13training_data, i64 0, i64 299), i64 830040477440)
  call void @_ZN7ap_uintILi49EEC1El(%struct.ap_uint* getelementptr inbounds ([18000 x %struct.ap_uint]* @_ZL13training_data, i64 0, i64 300), i64 966942560000)
  call void @_ZN7ap_uintILi49EEC1El(%struct.ap_uint* getelementptr inbounds ([18000 x %struct.ap_uint]* @_ZL13training_data, i64 0, i64 301), i64 415563713536)
  call void @_ZN7ap_uintILi49EEC1El(%struct.ap_uint* getelementptr inbounds ([18000 x %struct.ap_uint]* @_ZL13training_data, i64 0, i64 302), i64 417698744832)
  call void @_ZN7ap_uintILi49EEC1El(%struct.ap_uint* getelementptr inbounds ([18000 x %struct.ap_uint]* @_ZL13training_data, i64 0, i64 303), i64 832208965120)
  call void @_ZN7ap_uintILi49EEC1El(%struct.ap_uint* getelementptr inbounds ([18000 x %struct.ap_uint]* @_ZL13training_data, i64 0, i64 304), i64 415584554496)
  call void @_ZN7ap_uintILi49EEC1El(%struct.ap_uint* getelementptr inbounds ([18000 x %struct.ap_uint]* @_ZL13training_data, i64 0, i64 305), i64 488062393344)
  call void @_ZN7ap_uintILi49EEC1El(%struct.ap_uint* getelementptr inbounds ([18000 x %struct.ap_uint]* @_ZL13training_data, i64 0, i64 306), i64 415597661184)
  call void @_ZN7ap_uintILi49EEC1El(%struct.ap_uint* getelementptr inbounds ([18000 x %struct.ap_uint]* @_ZL13training_data, i64 0, i64 307), i64 283036651008)
  call void @_ZN7ap_uintILi49EEC1El(%struct.ap_uint* getelementptr inbounds ([18000 x %struct.ap_uint]* @_ZL13training_data, i64 0, i64 308), i64 420441792000)
  call void @_ZN7ap_uintILi49EEC1El(%struct.ap_uint* getelementptr inbounds ([18000 x %struct.ap_uint]* @_ZL13training_data, i64 0, i64 309), i64 214317078528)
  call void @_ZN7ap_uintILi49EEC1El(%struct.ap_uint* getelementptr inbounds ([18000 x %struct.ap_uint]* @_ZL13training_data, i64 0, i64 310), i64 970164379136)
  call void @_ZN7ap_uintILi49EEC1El(%struct.ap_uint* getelementptr inbounds ([18000 x %struct.ap_uint]* @_ZL13training_data, i64 0, i64 311), i64 420408036864)
  call void @_ZN7ap_uintILi49EEC1El(%struct.ap_uint* getelementptr inbounds ([18000 x %struct.ap_uint]* @_ZL13training_data, i64 0, i64 312), i64 419871624960)
  call void @_ZN7ap_uintILi49EEC1El(%struct.ap_uint* getelementptr inbounds ([18000 x %struct.ap_uint]* @_ZL13training_data, i64 0, i64 313), i64 282432146944)
  call void @_ZN7ap_uintILi49EEC1El(%struct.ap_uint* getelementptr inbounds ([18000 x %struct.ap_uint]* @_ZL13training_data, i64 0, i64 314), i64 417254185984)
  call void @_ZN7ap_uintILi49EEC1El(%struct.ap_uint* getelementptr inbounds ([18000 x %struct.ap_uint]* @_ZL13training_data, i64 0, i64 315), i64 140229188608)
  call void @_ZN7ap_uintILi49EEC1El(%struct.ap_uint* getelementptr inbounds ([18000 x %struct.ap_uint]* @_ZL13training_data, i64 0, i64 316), i64 416138730496)
  call void @_ZN7ap_uintILi49EEC1El(%struct.ap_uint* getelementptr inbounds ([18000 x %struct.ap_uint]* @_ZL13training_data, i64 0, i64 317), i64 489195150848)
  call void @_ZN7ap_uintILi49EEC1El(%struct.ap_uint* getelementptr inbounds ([18000 x %struct.ap_uint]* @_ZL13training_data, i64 0, i64 318), i64 832221777408)
  call void @_ZN7ap_uintILi49EEC1El(%struct.ap_uint* getelementptr inbounds ([18000 x %struct.ap_uint]* @_ZL13training_data, i64 0, i64 319), i64 8167329280)
  call void @_ZN7ap_uintILi49EEC1El(%struct.ap_uint* getelementptr inbounds ([18000 x %struct.ap_uint]* @_ZL13training_data, i64 0, i64 320), i64 489144785920)
  call void @_ZN7ap_uintILi49EEC1El(%struct.ap_uint* getelementptr inbounds ([18000 x %struct.ap_uint]* @_ZL13training_data, i64 0, i64 321), i64 975566380544)
  call void @_ZN7ap_uintILi49EEC1El(%struct.ap_uint* getelementptr inbounds ([18000 x %struct.ap_uint]* @_ZL13training_data, i64 0, i64 322), i64 419401928192)
  call void @_ZN7ap_uintILi49EEC1El(%struct.ap_uint* getelementptr inbounds ([18000 x %struct.ap_uint]* @_ZL13training_data, i64 0, i64 323), i64 968084000256)
  call void @_ZN7ap_uintILi49EEC1El(%struct.ap_uint* getelementptr inbounds ([18000 x %struct.ap_uint]* @_ZL13training_data, i64 0, i64 324), i64 279210953728)
  call void @_ZN7ap_uintILi49EEC1El(%struct.ap_uint* getelementptr inbounds ([18000 x %struct.ap_uint]* @_ZL13training_data, i64 0, i64 325), i64 566470938112)
  call void @_ZN7ap_uintILi49EEC1El(%struct.ap_uint* getelementptr inbounds ([18000 x %struct.ap_uint]* @_ZL13training_data, i64 0, i64 326), i64 488054035456)
  call void @_ZN7ap_uintILi49EEC1El(%struct.ap_uint* getelementptr inbounds ([18000 x %struct.ap_uint]* @_ZL13training_data, i64 0, i64 327), i64 488121409024)
  call void @_ZN7ap_uintILi49EEC1El(%struct.ap_uint* getelementptr inbounds ([18000 x %struct.ap_uint]* @_ZL13training_data, i64 0, i64 328), i64 418294566656)
  call void @_ZN7ap_uintILi49EEC1El(%struct.ap_uint* getelementptr inbounds ([18000 x %struct.ap_uint]* @_ZL13training_data, i64 0, i64 329), i64 16715122176)
  call void @_ZN7ap_uintILi49EEC1El(%struct.ap_uint* getelementptr inbounds ([18000 x %struct.ap_uint]* @_ZL13training_data, i64 0, i64 330), i64 841350680064)
  call void @_ZN7ap_uintILi49EEC1El(%struct.ap_uint* getelementptr inbounds ([18000 x %struct.ap_uint]* @_ZL13training_data, i64 0, i64 331), i64 282432736768)
  call void @_ZN7ap_uintILi49EEC1El(%struct.ap_uint* getelementptr inbounds ([18000 x %struct.ap_uint]* @_ZL13training_data, i64 0, i64 332), i64 346320379392)
  call void @_ZN7ap_uintILi49EEC1El(%struct.ap_uint* getelementptr inbounds ([18000 x %struct.ap_uint]* @_ZL13training_data, i64 0, i64 333), i64 968083934720)
  call void @_ZN7ap_uintILi49EEC1El(%struct.ap_uint* getelementptr inbounds ([18000 x %struct.ap_uint]* @_ZL13training_data, i64 0, i64 334), i64 211095723008)
  call void @_ZN7ap_uintILi49EEC1El(%struct.ap_uint* getelementptr inbounds ([18000 x %struct.ap_uint]* @_ZL13training_data, i64 0, i64 335), i64 416121555968)
  call void @_ZN7ap_uintILi49EEC1El(%struct.ap_uint* getelementptr inbounds ([18000 x %struct.ap_uint]* @_ZL13training_data, i64 0, i64 336), i64 419879521792)
  call void @_ZN7ap_uintILi49EEC1El(%struct.ap_uint* getelementptr inbounds ([18000 x %struct.ap_uint]* @_ZL13training_data, i64 0, i64 337), i64 488121114112)
  call void @_ZN7ap_uintILi49EEC1El(%struct.ap_uint* getelementptr inbounds ([18000 x %struct.ap_uint]* @_ZL13training_data, i64 0, i64 338), i64 485973626368)
  call void @_ZN7ap_uintILi49EEC1El(%struct.ap_uint* getelementptr inbounds ([18000 x %struct.ap_uint]* @_ZL13training_data, i64 0, i64 339), i64 418261011976)
  call void @_ZN7ap_uintILi49EEC1El(%struct.ap_uint* getelementptr inbounds ([18000 x %struct.ap_uint]* @_ZL13training_data, i64 0, i64 340), i64 485973921280)
  call void @_ZN7ap_uintILi49EEC1El(%struct.ap_uint* getelementptr inbounds ([18000 x %struct.ap_uint]* @_ZL13training_data, i64 0, i64 341), i64 488121146880)
  call void @_ZN7ap_uintILi49EEC1El(%struct.ap_uint* getelementptr inbounds ([18000 x %struct.ap_uint]* @_ZL13training_data, i64 0, i64 342), i64 214316948480)
  call void @_ZN7ap_uintILi49EEC1El(%struct.ap_uint* getelementptr inbounds ([18000 x %struct.ap_uint]* @_ZL13training_data, i64 0, i64 343), i64 487047405056)
  call void @_ZN7ap_uintILi49EEC1El(%struct.ap_uint* getelementptr inbounds ([18000 x %struct.ap_uint]* @_ZL13training_data, i64 0, i64 344), i64 208881425408)
  call void @_ZN7ap_uintILi49EEC1El(%struct.ap_uint* getelementptr inbounds ([18000 x %struct.ap_uint]* @_ZL13training_data, i64 0, i64 345), i64 489203502592)
  call void @_ZN7ap_uintILi49EEC1El(%struct.ap_uint* getelementptr inbounds ([18000 x %struct.ap_uint]* @_ZL13training_data, i64 0, i64 346), i64 418294304256)
  call void @_ZN7ap_uintILi49EEC1El(%struct.ap_uint* getelementptr inbounds ([18000 x %struct.ap_uint]* @_ZL13training_data, i64 0, i64 347), i64 978821357056)
  call void @_ZN7ap_uintILi49EEC1El(%struct.ap_uint* getelementptr inbounds ([18000 x %struct.ap_uint]* @_ZL13training_data, i64 0, i64 348), i64 208889519104)
  call void @_ZN7ap_uintILi49EEC1El(%struct.ap_uint* getelementptr inbounds ([18000 x %struct.ap_uint]* @_ZL13training_data, i64 0, i64 349), i64 489194888704)
  call void @_ZN7ap_uintILi49EEC1El(%struct.ap_uint* getelementptr inbounds ([18000 x %struct.ap_uint]* @_ZL13training_data, i64 0, i64 350), i64 291595128320)
  call void @_ZN7ap_uintILi49EEC1El(%struct.ap_uint* getelementptr inbounds ([18000 x %struct.ap_uint]* @_ZL13training_data, i64 0, i64 351), i64 967010258432)
  call void @_ZN7ap_uintILi49EEC1El(%struct.ap_uint* getelementptr inbounds ([18000 x %struct.ap_uint]* @_ZL13training_data, i64 0, i64 352), i64 417727841792)
  call void @_ZN7ap_uintILi49EEC1El(%struct.ap_uint* getelementptr inbounds ([18000 x %struct.ap_uint]* @_ZL13training_data, i64 0, i64 353), i64 420416691712)
  call void @_ZN7ap_uintILi49EEC1El(%struct.ap_uint* getelementptr inbounds ([18000 x %struct.ap_uint]* @_ZL13training_data, i64 0, i64 354), i64 419896299008)
  call void @_ZN7ap_uintILi49EEC1El(%struct.ap_uint* getelementptr inbounds ([18000 x %struct.ap_uint]* @_ZL13training_data, i64 0, i64 355), i64 145597439488)
  call void @_ZN7ap_uintILi49EEC1El(%struct.ap_uint* getelementptr inbounds ([18000 x %struct.ap_uint]* @_ZL13training_data, i64 0, i64 356), i64 976640314880)
  call void @_ZN7ap_uintILi49EEC1El(%struct.ap_uint* getelementptr inbounds ([18000 x %struct.ap_uint]* @_ZL13training_data, i64 0, i64 357), i64 483759037440)
  call void @_ZN7ap_uintILi49EEC1El(%struct.ap_uint* getelementptr inbounds ([18000 x %struct.ap_uint]* @_ZL13training_data, i64 0, i64 358), i64 978821422592)
  call void @_ZN7ap_uintILi49EEC1El(%struct.ap_uint* getelementptr inbounds ([18000 x %struct.ap_uint]* @_ZL13training_data, i64 0, i64 359), i64 415597136896)
  call void @_ZN7ap_uintILi49EEC1El(%struct.ap_uint* getelementptr inbounds ([18000 x %struct.ap_uint]* @_ZL13training_data, i64 0, i64 360), i64 214317243920)
  call void @_ZN7ap_uintILi49EEC1El(%struct.ap_uint* getelementptr inbounds ([18000 x %struct.ap_uint]* @_ZL13training_data, i64 0, i64 361), i64 420408561152)
  call void @_ZN7ap_uintILi49EEC1El(%struct.ap_uint* getelementptr inbounds ([18000 x %struct.ap_uint]* @_ZL13training_data, i64 0, i64 362), i64 967550797312)
  call void @_ZN7ap_uintILi49EEC1El(%struct.ap_uint* getelementptr inbounds ([18000 x %struct.ap_uint]* @_ZL13training_data, i64 0, i64 363), i64 280284728832)
  call void @_ZN7ap_uintILi49EEC1El(%struct.ap_uint* getelementptr inbounds ([18000 x %struct.ap_uint]* @_ZL13training_data, i64 0, i64 364), i64 1044286115328)
  call void @_ZN7ap_uintILi49EEC1El(%struct.ap_uint* getelementptr inbounds ([18000 x %struct.ap_uint]* @_ZL13training_data, i64 0, i64 365), i64 141239323648)
  call void @_ZN7ap_uintILi49EEC1El(%struct.ap_uint* getelementptr inbounds ([18000 x %struct.ap_uint]* @_ZL13training_data, i64 0, i64 366), i64 976136474368)
  call void @_ZN7ap_uintILi49EEC1El(%struct.ap_uint* getelementptr inbounds ([18000 x %struct.ap_uint]* @_ZL13training_data, i64 0, i64 367), i64 488121146880)
  call void @_ZN7ap_uintILi49EEC1El(%struct.ap_uint* getelementptr inbounds ([18000 x %struct.ap_uint]* @_ZL13training_data, i64 0, i64 368), i64 417187008000)
  call void @_ZN7ap_uintILi49EEC1El(%struct.ap_uint* getelementptr inbounds ([18000 x %struct.ap_uint]* @_ZL13training_data, i64 0, i64 369), i64 769676352512)
  call void @_ZN7ap_uintILi49EEC1El(%struct.ap_uint* getelementptr inbounds ([18000 x %struct.ap_uint]* @_ZL13training_data, i64 0, i64 370), i64 420408565248)
  call void @_ZN7ap_uintILi49EEC1Ej(%struct.ap_uint* getelementptr inbounds ([18000 x %struct.ap_uint]* @_ZL13training_data, i64 0, i64 371), i32 -1031468032)
  call void @_ZN7ap_uintILi49EEC1El(%struct.ap_uint* getelementptr inbounds ([18000 x %struct.ap_uint]* @_ZL13training_data, i64 0, i64 372), i64 420425342480)
  call void @_ZN7ap_uintILi49EEC1El(%struct.ap_uint* getelementptr inbounds ([18000 x %struct.ap_uint]* @_ZL13training_data, i64 0, i64 373), i64 701762604544)
  call void @_ZN7ap_uintILi49EEC1El(%struct.ap_uint* getelementptr inbounds ([18000 x %struct.ap_uint]* @_ZL13training_data, i64 0, i64 374), i64 420416916480)
  call void @_ZN7ap_uintILi49EEC1El(%struct.ap_uint* getelementptr inbounds ([18000 x %struct.ap_uint]* @_ZL13training_data, i64 0, i64 375), i64 488322571264)
  call void @_ZN7ap_uintILi49EEC1El(%struct.ap_uint* getelementptr inbounds ([18000 x %struct.ap_uint]* @_ZL13training_data, i64 0, i64 376), i64 489195019776)
  call void @_ZN7ap_uintILi49EEC1El(%struct.ap_uint* getelementptr inbounds ([18000 x %struct.ap_uint]* @_ZL13training_data, i64 0, i64 377), i64 419670460416)
  call void @_ZN7ap_uintILi49EEC1El(%struct.ap_uint* getelementptr inbounds ([18000 x %struct.ap_uint]* @_ZL13training_data, i64 0, i64 378), i64 489203670016)
  call void @_ZN7ap_uintILi49EEC1El(%struct.ap_uint* getelementptr inbounds ([18000 x %struct.ap_uint]* @_ZL13training_data, i64 0, i64 379), i64 488356027392)
  call void @_ZN7ap_uintILi49EEC1El(%struct.ap_uint* getelementptr inbounds ([18000 x %struct.ap_uint]* @_ZL13training_data, i64 0, i64 380), i64 488121081344)
  call void @_ZN7ap_uintILi49EEC1El(%struct.ap_uint* getelementptr inbounds ([18000 x %struct.ap_uint]* @_ZL13training_data, i64 0, i64 381), i64 420416920576)
  call void @_ZN7ap_uintILi49EEC1El(%struct.ap_uint* getelementptr inbounds ([18000 x %struct.ap_uint]* @_ZL13training_data, i64 0, i64 382), i64 420484058624)
  call void @_ZN7ap_uintILi49EEC1El(%struct.ap_uint* getelementptr inbounds ([18000 x %struct.ap_uint]* @_ZL13training_data, i64 0, i64 383), i64 140170431488)
  call void @_ZN7ap_uintILi49EEC1El(%struct.ap_uint* getelementptr inbounds ([18000 x %struct.ap_uint]* @_ZL13training_data, i64 0, i64 384), i64 417187008000)
  call void @_ZN7ap_uintILi49EEC1El(%struct.ap_uint* getelementptr inbounds ([18000 x %struct.ap_uint]* @_ZL13training_data, i64 0, i64 385), i64 419879652352)
  call void @_ZN7ap_uintILi49EEC1El(%struct.ap_uint* getelementptr inbounds ([18000 x %struct.ap_uint]* @_ZL13training_data, i64 0, i64 386), i64 968083934720)
  call void @_ZN7ap_uintILi49EEC1El(%struct.ap_uint* getelementptr inbounds ([18000 x %struct.ap_uint]* @_ZL13training_data, i64 0, i64 387), i64 967009934848)
  call void @_ZN7ap_uintILi49EEC1El(%struct.ap_uint* getelementptr inbounds ([18000 x %struct.ap_uint]* @_ZL13training_data, i64 0, i64 388), i64 213512030208)
  call void @_ZN7ap_uintILi49EEC1El(%struct.ap_uint* getelementptr inbounds ([18000 x %struct.ap_uint]* @_ZL13training_data, i64 0, i64 389), i64 481687182336)
  call void @_ZN7ap_uintILi49EEC1El(%struct.ap_uint* getelementptr inbounds ([18000 x %struct.ap_uint]* @_ZL13training_data, i64 0, i64 390), i64 832196414976)
  call void @_ZN7ap_uintILi49EEC1El(%struct.ap_uint* getelementptr inbounds ([18000 x %struct.ap_uint]* @_ZL13training_data, i64 0, i64 391), i64 1035731504640)
  call void @_ZN7ap_uintILi49EEC1El(%struct.ap_uint* getelementptr inbounds ([18000 x %struct.ap_uint]* @_ZL13training_data, i64 0, i64 392), i64 283003292672)
  call void @_ZN7ap_uintILi49EEC1El(%struct.ap_uint* getelementptr inbounds ([18000 x %struct.ap_uint]* @_ZL13training_data, i64 0, i64 393), i64 281362632192)
  call void @_ZN7ap_uintILi49EEC1El(%struct.ap_uint* getelementptr inbounds ([18000 x %struct.ap_uint]* @_ZL13training_data, i64 0, i64 394), i64 978821418752)
  call void @_ZN7ap_uintILi49EEC1El(%struct.ap_uint* getelementptr inbounds ([18000 x %struct.ap_uint]* @_ZL13training_data, i64 0, i64 395), i64 488054299664)
  call void @_ZN7ap_uintILi49EEC1El(%struct.ap_uint* getelementptr inbounds ([18000 x %struct.ap_uint]* @_ZL13training_data, i64 0, i64 396), i64 485973659136)
  call void @_ZN7ap_uintILi49EEC1El(%struct.ap_uint* getelementptr inbounds ([18000 x %struct.ap_uint]* @_ZL13training_data, i64 0, i64 397), i64 420408499712)
  call void @_ZN7ap_uintILi49EEC1El(%struct.ap_uint* getelementptr inbounds ([18000 x %struct.ap_uint]* @_ZL13training_data, i64 0, i64 398), i64 970188983816)
  call void @_ZN7ap_uintILi49EEC1El(%struct.ap_uint* getelementptr inbounds ([18000 x %struct.ap_uint]* @_ZL13training_data, i64 0, i64 399), i64 140702453248)
  call void @_ZN7ap_uintILi49EEC1El(%struct.ap_uint* getelementptr inbounds ([18000 x %struct.ap_uint]* @_ZL13training_data, i64 0, i64 400), i64 145565978112)
  call void @_ZN7ap_uintILi49EEC1El(%struct.ap_uint* getelementptr inbounds ([18000 x %struct.ap_uint]* @_ZL13training_data, i64 0, i64 401), i64 975600127744)
  call void @_ZN7ap_uintILi49EEC1El(%struct.ap_uint* getelementptr inbounds ([18000 x %struct.ap_uint]* @_ZL13training_data, i64 0, i64 402), i64 418330418688)
  call void @_ZN7ap_uintILi49EEC1El(%struct.ap_uint* getelementptr inbounds ([18000 x %struct.ap_uint]* @_ZL13training_data, i64 0, i64 403), i64 415597136896)
  call void @_ZN7ap_uintILi49EEC1El(%struct.ap_uint* getelementptr inbounds ([18000 x %struct.ap_uint]* @_ZL13training_data, i64 0, i64 404), i64 420494286336)
  call void @_ZN7ap_uintILi49EEC1El(%struct.ap_uint* getelementptr inbounds ([18000 x %struct.ap_uint]* @_ZL13training_data, i64 0, i64 405), i64 972345085440)
  call void @_ZN7ap_uintILi49EEC1El(%struct.ap_uint* getelementptr inbounds ([18000 x %struct.ap_uint]* @_ZL13training_data, i64 0, i64 406), i64 420408036864)
  call void @_ZN7ap_uintILi49EEC1El(%struct.ap_uint* getelementptr inbounds ([18000 x %struct.ap_uint]* @_ZL13training_data, i64 0, i64 407), i64 208906030080)
  call void @_ZN7ap_uintILi49EEC1El(%struct.ap_uint* getelementptr inbounds ([18000 x %struct.ap_uint]* @_ZL13training_data, i64 0, i64 408), i64 420475674112)
  call void @_ZN7ap_uintILi49EEC1El(%struct.ap_uint* getelementptr inbounds ([18000 x %struct.ap_uint]* @_ZL13training_data, i64 0, i64 409), i64 966405687816)
  call void @_ZN7ap_uintILi49EEC1El(%struct.ap_uint* getelementptr inbounds ([18000 x %struct.ap_uint]* @_ZL13training_data, i64 0, i64 410), i64 420494679552)
  call void @_ZN7ap_uintILi49EEC1El(%struct.ap_uint* getelementptr inbounds ([18000 x %struct.ap_uint]* @_ZL13training_data, i64 0, i64 411), i64 968016825856)
  call void @_ZN7ap_uintILi49EEC1El(%struct.ap_uint* getelementptr inbounds ([18000 x %struct.ap_uint]* @_ZL13training_data, i64 0, i64 412), i64 209749384704)
  call void @_ZN7ap_uintILi49EEC1El(%struct.ap_uint* getelementptr inbounds ([18000 x %struct.ap_uint]* @_ZL13training_data, i64 0, i64 413), i64 420483997440)
  call void @_ZN7ap_uintILi49EEC1El(%struct.ap_uint* getelementptr inbounds ([18000 x %struct.ap_uint]* @_ZL13training_data, i64 0, i64 414), i64 417723649536)
  call void @_ZN7ap_uintILi49EEC1El(%struct.ap_uint* getelementptr inbounds ([18000 x %struct.ap_uint]* @_ZL13training_data, i64 0, i64 415), i64 830040477184)
  call void @_ZN7ap_uintILi49EEC1El(%struct.ap_uint* getelementptr inbounds ([18000 x %struct.ap_uint]* @_ZL13training_data, i64 0, i64 416), i64 489127779840)
  call void @_ZN7ap_uintILi49EEC1El(%struct.ap_uint* getelementptr inbounds ([18000 x %struct.ap_uint]* @_ZL13training_data, i64 0, i64 417), i64 419880046080)
  call void @_ZN7ap_uintILi49EEC1El(%struct.ap_uint* getelementptr inbounds ([18000 x %struct.ap_uint]* @_ZL13training_data, i64 0, i64 418), i64 418294308352)
  call void @_ZN7ap_uintILi49EEC1El(%struct.ap_uint* getelementptr inbounds ([18000 x %struct.ap_uint]* @_ZL13training_data, i64 0, i64 419), i64 420475674112)
  call void @_ZN7ap_uintILi49EEC1El(%struct.ap_uint* getelementptr inbounds ([18000 x %struct.ap_uint]* @_ZL13training_data, i64 0, i64 420), i64 485906746880)
  call void @_ZN7ap_uintILi49EEC1El(%struct.ap_uint* getelementptr inbounds ([18000 x %struct.ap_uint]* @_ZL13training_data, i64 0, i64 421), i64 209980427264)
  call void @_ZN7ap_uintILi49EEC1El(%struct.ap_uint* getelementptr inbounds ([18000 x %struct.ap_uint]* @_ZL13training_data, i64 0, i64 422), i64 280288888320)
  call void @_ZN7ap_uintILi49EEC1El(%struct.ap_uint* getelementptr inbounds ([18000 x %struct.ap_uint]* @_ZL13training_data, i64 0, i64 423), i64 497787313664)
  call void @_ZN7ap_uintILi49EEC1El(%struct.ap_uint* getelementptr inbounds ([18000 x %struct.ap_uint]* @_ZL13training_data, i64 0, i64 424), i64 140702521344)
  call void @_ZN7ap_uintILi49EEC1El(%struct.ap_uint* getelementptr inbounds ([18000 x %struct.ap_uint]* @_ZL13training_data, i64 0, i64 425), i64 420500971008)
  call void @_ZN7ap_uintILi49EEC1El(%struct.ap_uint* getelementptr inbounds ([18000 x %struct.ap_uint]* @_ZL13training_data, i64 0, i64 426), i64 419875326976)
  call void @_ZN7ap_uintILi49EEC1El(%struct.ap_uint* getelementptr inbounds ([18000 x %struct.ap_uint]* @_ZL13training_data, i64 0, i64 427), i64 419351137792)
  call void @_ZN7ap_uintILi49EEC1El(%struct.ap_uint* getelementptr inbounds ([18000 x %struct.ap_uint]* @_ZL13training_data, i64 0, i64 428), i64 557863898624)
  call void @_ZN7ap_uintILi49EEC1El(%struct.ap_uint* getelementptr inbounds ([18000 x %struct.ap_uint]* @_ZL13training_data, i64 0, i64 429), i64 489194855936)
  call void @_ZN7ap_uintILi49EEC1El(%struct.ap_uint* getelementptr inbounds ([18000 x %struct.ap_uint]* @_ZL13training_data, i64 0, i64 430), i64 420475408896)
  call void @_ZN7ap_uintILi49EEC1El(%struct.ap_uint* getelementptr inbounds ([18000 x %struct.ap_uint]* @_ZL13training_data, i64 0, i64 431), i64 454776785920)
  call void @_ZN7ap_uintILi49EEC1El(%struct.ap_uint* getelementptr inbounds ([18000 x %struct.ap_uint]* @_ZL13training_data, i64 0, i64 432), i64 208343993344)
  call void @_ZN7ap_uintILi49EEC1El(%struct.ap_uint* getelementptr inbounds ([18000 x %struct.ap_uint]* @_ZL13training_data, i64 0, i64 433), i64 968084000256)
  call void @_ZN7ap_uintILi49EEC1El(%struct.ap_uint* getelementptr inbounds ([18000 x %struct.ap_uint]* @_ZL13training_data, i64 0, i64 434), i64 420475411456)
  call void @_ZN7ap_uintILi49EEC1El(%struct.ap_uint* getelementptr inbounds ([18000 x %struct.ap_uint]* @_ZL13training_data, i64 0, i64 435), i64 419875327488)
  call void @_ZN7ap_uintILi49EEC1El(%struct.ap_uint* getelementptr inbounds ([18000 x %struct.ap_uint]* @_ZL13training_data, i64 0, i64 436), i64 416138202112)
  call void @_ZN7ap_uintILi49EEC1El(%struct.ap_uint* getelementptr inbounds ([18000 x %struct.ap_uint]* @_ZL13training_data, i64 0, i64 437), i64 419334819328)
  call void @_ZN7ap_uintILi49EEC1El(%struct.ap_uint* getelementptr inbounds ([18000 x %struct.ap_uint]* @_ZL13training_data, i64 0, i64 438), i64 419334295040)
  call void @_ZN7ap_uintILi49EEC1El(%struct.ap_uint* getelementptr inbounds ([18000 x %struct.ap_uint]* @_ZL13training_data, i64 0, i64 439), i64 966976408576)
  call void @_ZN7ap_uintILi49EEC1El(%struct.ap_uint* getelementptr inbounds ([18000 x %struct.ap_uint]* @_ZL13training_data, i64 0, i64 440), i64 282969214464)
  call void @_ZN7ap_uintILi49EEC1El(%struct.ap_uint* getelementptr inbounds ([18000 x %struct.ap_uint]* @_ZL13training_data, i64 0, i64 441), i64 416117234688)
  call void @_ZN7ap_uintILi49EEC1El(%struct.ap_uint* getelementptr inbounds ([18000 x %struct.ap_uint]* @_ZL13training_data, i64 0, i64 442), i64 420416949760)
  call void @_ZN7ap_uintILi49EEC1El(%struct.ap_uint* getelementptr inbounds ([18000 x %struct.ap_uint]* @_ZL13training_data, i64 0, i64 443), i64 420408690688)
  call void @_ZN7ap_uintILi49EEC1El(%struct.ap_uint* getelementptr inbounds ([18000 x %struct.ap_uint]* @_ZL13training_data, i64 0, i64 444), i64 416113303040)
  call void @_ZN7ap_uintILi49EEC1El(%struct.ap_uint* getelementptr inbounds ([18000 x %struct.ap_uint]* @_ZL13training_data, i64 0, i64 445), i64 209980300288)
  call void @_ZN7ap_uintILi49EEC1El(%struct.ap_uint* getelementptr inbounds ([18000 x %struct.ap_uint]* @_ZL13training_data, i64 0, i64 446), i64 489213955840)
  call void @_ZN7ap_uintILi49EEC1El(%struct.ap_uint* getelementptr inbounds ([18000 x %struct.ap_uint]* @_ZL13training_data, i64 0, i64 447), i64 970197671424)
  call void @_ZN7ap_uintILi49EEC1El(%struct.ap_uint* getelementptr inbounds ([18000 x %struct.ap_uint]* @_ZL13training_data, i64 0, i64 448), i64 419368377856)
  call void @_ZN7ap_uintILi49EEC1El(%struct.ap_uint* getelementptr inbounds ([18000 x %struct.ap_uint]* @_ZL13training_data, i64 0, i64 449), i64 209980431360)
  call void @_ZN7ap_uintILi49EEC1El(%struct.ap_uint* getelementptr inbounds ([18000 x %struct.ap_uint]* @_ZL13training_data, i64 0, i64 450), i64 141239323648)
  call void @_ZN7ap_uintILi49EEC1El(%struct.ap_uint* getelementptr inbounds ([18000 x %struct.ap_uint]* @_ZL13training_data, i64 0, i64 451), i64 973418827520)
  call void @_ZN7ap_uintILi49EEC1El(%struct.ap_uint* getelementptr inbounds ([18000 x %struct.ap_uint]* @_ZL13training_data, i64 0, i64 452), i64 416113200128)
  call void @_ZN7ap_uintILi49EEC1El(%struct.ap_uint* getelementptr inbounds ([18000 x %struct.ap_uint]* @_ZL13training_data, i64 0, i64 453), i64 497785212416)
  call void @_ZN7ap_uintILi49EEC1El(%struct.ap_uint* getelementptr inbounds ([18000 x %struct.ap_uint]* @_ZL13training_data, i64 0, i64 454), i64 420416392704)
  call void @_ZN7ap_uintILi49EEC1El(%struct.ap_uint* getelementptr inbounds ([18000 x %struct.ap_uint]* @_ZL13training_data, i64 0, i64 455), i64 420416392192)
  call void @_ZN7ap_uintILi49EEC1El(%struct.ap_uint* getelementptr inbounds ([18000 x %struct.ap_uint]* @_ZL13training_data, i64 0, i64 456), i64 976640315136)
  call void @_ZN7ap_uintILi49EEC1El(%struct.ap_uint* getelementptr inbounds ([18000 x %struct.ap_uint]* @_ZL13training_data, i64 0, i64 457), i64 487013785088)
  call void @_ZN7ap_uintILi49EEC1El(%struct.ap_uint* getelementptr inbounds ([18000 x %struct.ap_uint]* @_ZL13training_data, i64 0, i64 458), i64 144998075392)
  call void @_ZN7ap_uintILi49EEC1El(%struct.ap_uint* getelementptr inbounds ([18000 x %struct.ap_uint]* @_ZL13training_data, i64 0, i64 459), i64 210030761984)
  call void @_ZN7ap_uintILi49EEC1El(%struct.ap_uint* getelementptr inbounds ([18000 x %struct.ap_uint]* @_ZL13training_data, i64 0, i64 460), i64 429031792128)
  call void @_ZN7ap_uintILi49EEC1El(%struct.ap_uint* getelementptr inbounds ([18000 x %struct.ap_uint]* @_ZL13training_data, i64 0, i64 461), i64 967483657216)
  call void @_ZN7ap_uintILi49EEC1El(%struct.ap_uint* getelementptr inbounds ([18000 x %struct.ap_uint]* @_ZL13training_data, i64 0, i64 462), i64 209954872848)
  call void @_ZN7ap_uintILi49EEC1El(%struct.ap_uint* getelementptr inbounds ([18000 x %struct.ap_uint]* @_ZL13training_data, i64 0, i64 463), i64 141252566016)
  call void @_ZN7ap_uintILi49EEC1El(%struct.ap_uint* getelementptr inbounds ([18000 x %struct.ap_uint]* @_ZL13training_data, i64 0, i64 464), i64 830048929280)
  call void @_ZN7ap_uintILi49EEC1El(%struct.ap_uint* getelementptr inbounds ([18000 x %struct.ap_uint]* @_ZL13training_data, i64 0, i64 465), i64 140161387520)
  call void @_ZN7ap_uintILi49EEC1El(%struct.ap_uint* getelementptr inbounds ([18000 x %struct.ap_uint]* @_ZL13training_data, i64 0, i64 466), i64 488087526912)
  call void @_ZN7ap_uintILi49EEC1El(%struct.ap_uint* getelementptr inbounds ([18000 x %struct.ap_uint]* @_ZL13training_data, i64 0, i64 467), i64 416113036288)
  call void @_ZN7ap_uintILi49EEC1El(%struct.ap_uint* getelementptr inbounds ([18000 x %struct.ap_uint]* @_ZL13training_data, i64 0, i64 468), i64 420450176776)
  call void @_ZN7ap_uintILi49EEC1El(%struct.ap_uint* getelementptr inbounds ([18000 x %struct.ap_uint]* @_ZL13training_data, i64 0, i64 469), i64 209972042752)
  call void @_ZN7ap_uintILi49EEC1El(%struct.ap_uint* getelementptr inbounds ([18000 x %struct.ap_uint]* @_ZL13training_data, i64 0, i64 470), i64 417727843328)
  call void @_ZN7ap_uintILi49EEC1El(%struct.ap_uint* getelementptr inbounds ([18000 x %struct.ap_uint]* @_ZL13training_data, i64 0, i64 471), i64 967010258432)
  call void @_ZN7ap_uintILi49EEC1El(%struct.ap_uint* getelementptr inbounds ([18000 x %struct.ap_uint]* @_ZL13training_data, i64 0, i64 472), i64 420475604480)
  call void @_ZN7ap_uintILi49EEC1El(%struct.ap_uint* getelementptr inbounds ([18000 x %struct.ap_uint]* @_ZL13training_data, i64 0, i64 473), i64 154154077696)
  call void @_ZN7ap_uintILi49EEC1El(%struct.ap_uint* getelementptr inbounds ([18000 x %struct.ap_uint]* @_ZL13training_data, i64 0, i64 474), i64 834369261312)
  call void @_ZN7ap_uintILi49EEC1El(%struct.ap_uint* getelementptr inbounds ([18000 x %struct.ap_uint]* @_ZL13training_data, i64 0, i64 475), i64 841350942208)
  call void @_ZN7ap_uintILi49EEC1El(%struct.ap_uint* getelementptr inbounds ([18000 x %struct.ap_uint]* @_ZL13training_data, i64 0, i64 476), i64 840845002496)
  call void @_ZN7ap_uintILi49EEC1El(%struct.ap_uint* getelementptr inbounds ([18000 x %struct.ap_uint]* @_ZL13training_data, i64 0, i64 477), i64 420450176776)
  call void @_ZN7ap_uintILi49EEC1El(%struct.ap_uint* getelementptr inbounds ([18000 x %struct.ap_uint]* @_ZL13training_data, i64 0, i64 478), i64 208948403200)
  call void @_ZN7ap_uintILi49EEC1El(%struct.ap_uint* getelementptr inbounds ([18000 x %struct.ap_uint]* @_ZL13training_data, i64 0, i64 479), i64 141235658240)
  call void @_ZN7ap_uintILi49EEC1El(%struct.ap_uint* getelementptr inbounds ([18000 x %struct.ap_uint]* @_ZL13training_data, i64 0, i64 480), i64 968083738112)
  call void @_ZN7ap_uintILi49EEC1El(%struct.ap_uint* getelementptr inbounds ([18000 x %struct.ap_uint]* @_ZL13training_data, i64 0, i64 481), i64 420475670016)
  call void @_ZN7ap_uintILi49EEC1El(%struct.ap_uint* getelementptr inbounds ([18000 x %struct.ap_uint]* @_ZL13training_data, i64 0, i64 482), i64 420416392704)
  call void @_ZN7ap_uintILi49EEC1El(%struct.ap_uint* getelementptr inbounds ([18000 x %struct.ap_uint]* @_ZL13training_data, i64 0, i64 483), i64 489203407872)
  call void @_ZN7ap_uintILi49EEC1El(%struct.ap_uint* getelementptr inbounds ([18000 x %struct.ap_uint]* @_ZL13training_data, i64 0, i64 484), i64 975566315008)
  call void @_ZN7ap_uintILi49EEC1El(%struct.ap_uint* getelementptr inbounds ([18000 x %struct.ap_uint]* @_ZL13training_data, i64 0, i64 485), i64 416121425408)
  call void @_ZN7ap_uintILi49EEC1El(%struct.ap_uint* getelementptr inbounds ([18000 x %struct.ap_uint]* @_ZL13training_data, i64 0, i64 486), i64 420475604480)
  call void @_ZN7ap_uintILi49EEC1El(%struct.ap_uint* getelementptr inbounds ([18000 x %struct.ap_uint]* @_ZL13training_data, i64 0, i64 487), i64 485906255360)
  call void @_ZN7ap_uintILi49EEC1El(%struct.ap_uint* getelementptr inbounds ([18000 x %struct.ap_uint]* @_ZL13training_data, i64 0, i64 488), i64 8183651840)
  call void @_ZN7ap_uintILi49EEC1El(%struct.ap_uint* getelementptr inbounds ([18000 x %struct.ap_uint]* @_ZL13training_data, i64 0, i64 489), i64 488121244672)
  call void @_ZN7ap_uintILi49EEC1El(%struct.ap_uint* getelementptr inbounds ([18000 x %struct.ap_uint]* @_ZL13training_data, i64 0, i64 490), i64 978787798536)
  call void @_ZN7ap_uintILi49EEC1El(%struct.ap_uint* getelementptr inbounds ([18000 x %struct.ap_uint]* @_ZL13training_data, i64 0, i64 491), i64 489161334272)
  call void @_ZN7ap_uintILi49EEC1El(%struct.ap_uint* getelementptr inbounds ([18000 x %struct.ap_uint]* @_ZL13training_data, i64 0, i64 492), i64 140162074624)
  call void @_ZN7ap_uintILi49EEC1El(%struct.ap_uint* getelementptr inbounds ([18000 x %struct.ap_uint]* @_ZL13training_data, i64 0, i64 493), i64 429031792128)
  call void @_ZN7ap_uintILi49EEC1El(%struct.ap_uint* getelementptr inbounds ([18000 x %struct.ap_uint]* @_ZL13training_data, i64 0, i64 494), i64 978829938176)
  call void @_ZN7ap_uintILi49EEC1El(%struct.ap_uint* getelementptr inbounds ([18000 x %struct.ap_uint]* @_ZL13training_data, i64 0, i64 495), i64 977713794816)
  call void @_ZN7ap_uintILi49EEC1El(%struct.ap_uint* getelementptr inbounds ([18000 x %struct.ap_uint]* @_ZL13training_data, i64 0, i64 496), i64 429067832832)
  call void @_ZN7ap_uintILi49EEC1El(%struct.ap_uint* getelementptr inbounds ([18000 x %struct.ap_uint]* @_ZL13training_data, i64 0, i64 497), i64 975568408064)
  call void @_ZN7ap_uintILi49EEC1El(%struct.ap_uint* getelementptr inbounds ([18000 x %struct.ap_uint]* @_ZL13training_data, i64 0, i64 498), i64 282440535552)
  call void @_ZN7ap_uintILi49EEC1El(%struct.ap_uint* getelementptr inbounds ([18000 x %struct.ap_uint]* @_ZL13training_data, i64 0, i64 499), i64 420408269824)
  call void @_ZN7ap_uintILi49EEC1El(%struct.ap_uint* getelementptr inbounds ([18000 x %struct.ap_uint]* @_ZL13training_data, i64 0, i64 500), i64 841382594304)
  call void @_ZN7ap_uintILi49EEC1El(%struct.ap_uint* getelementptr inbounds ([18000 x %struct.ap_uint]* @_ZL13training_data, i64 0, i64 501), i64 419401666048)
  call void @_ZN7ap_uintILi49EEC1El(%struct.ap_uint* getelementptr inbounds ([18000 x %struct.ap_uint]* @_ZL13training_data, i64 0, i64 502), i64 970200161792)
  call void @_ZN7ap_uintILi49EEC1El(%struct.ap_uint* getelementptr inbounds ([18000 x %struct.ap_uint]* @_ZL13training_data, i64 0, i64 503), i64 420475670016)
  call void @_ZN7ap_uintILi49EEC1El(%struct.ap_uint* getelementptr inbounds ([18000 x %struct.ap_uint]* @_ZL13training_data, i64 0, i64 504), i64 418327928320)
  call void @_ZN7ap_uintILi49EEC1El(%struct.ap_uint* getelementptr inbounds ([18000 x %struct.ap_uint]* @_ZL13training_data, i64 0, i64 505), i64 209971911680)
  call void @_ZN7ap_uintILi49EEC1El(%struct.ap_uint* getelementptr inbounds ([18000 x %struct.ap_uint]* @_ZL13training_data, i64 0, i64 506), i64 832794562048)
  call void @_ZN7ap_uintILi49EEC1El(%struct.ap_uint* getelementptr inbounds ([18000 x %struct.ap_uint]* @_ZL13training_data, i64 0, i64 507), i64 975566310920)
  call void @_ZN7ap_uintILi49EEC1El(%struct.ap_uint* getelementptr inbounds ([18000 x %struct.ap_uint]* @_ZL13training_data, i64 0, i64 508), i64 417186745856)
  call void @_ZN7ap_uintILi49EEC1El(%struct.ap_uint* getelementptr inbounds ([18000 x %struct.ap_uint]* @_ZL13training_data, i64 0, i64 509), i64 832187960832)
  call void @_ZN7ap_uintILi49EEC1El(%struct.ap_uint* getelementptr inbounds ([18000 x %struct.ap_uint]* @_ZL13training_data, i64 0, i64 510), i64 420484058624)
  call void @_ZN7ap_uintILi49EEC1El(%struct.ap_uint* getelementptr inbounds ([18000 x %struct.ap_uint]* @_ZL13training_data, i64 0, i64 511), i64 145614641152)
  call void @_ZN7ap_uintILi49EEC1El(%struct.ap_uint* getelementptr inbounds ([18000 x %struct.ap_uint]* @_ZL13training_data, i64 0, i64 512), i64 209955003392)
  call void @_ZN7ap_uintILi49EEC1El(%struct.ap_uint* getelementptr inbounds ([18000 x %struct.ap_uint]* @_ZL13training_data, i64 0, i64 513), i64 415580360192)
  call void @_ZN7ap_uintILi49EEC1El(%struct.ap_uint* getelementptr inbounds ([18000 x %struct.ap_uint]* @_ZL13training_data, i64 0, i64 514), i64 415580359680)
  call void @_ZN7ap_uintILi49EEC1El(%struct.ap_uint* getelementptr inbounds ([18000 x %struct.ap_uint]* @_ZL13training_data, i64 0, i64 515), i64 420475805184)
  call void @_ZN7ap_uintILi49EEC1El(%struct.ap_uint* getelementptr inbounds ([18000 x %struct.ap_uint]* @_ZL13training_data, i64 0, i64 516), i64 16765524992)
  call void @_ZN7ap_uintILi49EEC1El(%struct.ap_uint* getelementptr inbounds ([18000 x %struct.ap_uint]* @_ZL13training_data, i64 0, i64 517), i64 419338456576)
  call void @_ZN7ap_uintILi49EEC1El(%struct.ap_uint* getelementptr inbounds ([18000 x %struct.ap_uint]* @_ZL13training_data, i64 0, i64 518), i64 420475674112)
  call void @_ZN7ap_uintILi49EEC1El(%struct.ap_uint* getelementptr inbounds ([18000 x %struct.ap_uint]* @_ZL13training_data, i64 0, i64 519), i64 214317373440)
  call void @_ZN7ap_uintILi49EEC1El(%struct.ap_uint* getelementptr inbounds ([18000 x %struct.ap_uint]* @_ZL13training_data, i64 0, i64 520), i64 488054397952)
  call void @_ZN7ap_uintILi49EEC1El(%struct.ap_uint* getelementptr inbounds ([18000 x %struct.ap_uint]* @_ZL13training_data, i64 0, i64 521), i64 489203244032)
  call void @_ZN7ap_uintILi49EEC1El(%struct.ap_uint* getelementptr inbounds ([18000 x %struct.ap_uint]* @_ZL13training_data, i64 0, i64 522), i64 419871067648)
  call void @_ZN7ap_uintILi49EEC1El(%struct.ap_uint* getelementptr inbounds ([18000 x %struct.ap_uint]* @_ZL13training_data, i64 0, i64 523), i64 488121146880)
  call void @_ZN7ap_uintILi49EEC1El(%struct.ap_uint* getelementptr inbounds ([18000 x %struct.ap_uint]* @_ZL13training_data, i64 0, i64 524), i64 483759299584)
  call void @_ZN7ap_uintILi49EEC1El(%struct.ap_uint* getelementptr inbounds ([18000 x %struct.ap_uint]* @_ZL13training_data, i64 0, i64 525), i64 420408565264)
  call void @_ZN7ap_uintILi49EEC1El(%struct.ap_uint* getelementptr inbounds ([18000 x %struct.ap_uint]* @_ZL13training_data, i64 0, i64 526), i64 417220627968)
  call void @_ZN7ap_uintILi49EEC1El(%struct.ap_uint* getelementptr inbounds ([18000 x %struct.ap_uint]* @_ZL13training_data, i64 0, i64 527), i64 420408036864)
  call void @_ZN7ap_uintILi49EEC1El(%struct.ap_uint* getelementptr inbounds ([18000 x %struct.ap_uint]* @_ZL13training_data, i64 0, i64 528), i64 420441792000)
  call void @_ZN7ap_uintILi49EEC1El(%struct.ap_uint* getelementptr inbounds ([18000 x %struct.ap_uint]* @_ZL13training_data, i64 0, i64 529), i64 832209094144)
  call void @_ZN7ap_uintILi49EEC1El(%struct.ap_uint* getelementptr inbounds ([18000 x %struct.ap_uint]* @_ZL13training_data, i64 0, i64 530), i64 419875327488)
  call void @_ZN7ap_uintILi49EEC1El(%struct.ap_uint* getelementptr inbounds ([18000 x %struct.ap_uint]* @_ZL13training_data, i64 0, i64 531), i64 1046433275392)
  call void @_ZN7ap_uintILi49EEC1El(%struct.ap_uint* getelementptr inbounds ([18000 x %struct.ap_uint]* @_ZL13training_data, i64 0, i64 532), i64 970230894336)
  call void @_ZN7ap_uintILi49EEC1El(%struct.ap_uint* getelementptr inbounds ([18000 x %struct.ap_uint]* @_ZL13training_data, i64 0, i64 533), i64 488054004752)
  call void @_ZN7ap_uintILi49EEC1El(%struct.ap_uint* getelementptr inbounds ([18000 x %struct.ap_uint]* @_ZL13training_data, i64 0, i64 534), i64 420408003584)
  call void @_ZN7ap_uintILi49EEC1El(%struct.ap_uint* getelementptr inbounds ([18000 x %struct.ap_uint]* @_ZL13training_data, i64 0, i64 535), i64 489128041984)
  call void @_ZN7ap_uintILi49EEC1El(%struct.ap_uint* getelementptr inbounds ([18000 x %struct.ap_uint]* @_ZL13training_data, i64 0, i64 536), i64 417152959504)
  call void @_ZN7ap_uintILi49EEC1El(%struct.ap_uint* getelementptr inbounds ([18000 x %struct.ap_uint]* @_ZL13training_data, i64 0, i64 537), i64 282508201472)
  call void @_ZN7ap_uintILi49EEC1El(%struct.ap_uint* getelementptr inbounds ([18000 x %struct.ap_uint]* @_ZL13training_data, i64 0, i64 538), i64 841382596096)
  call void @_ZN7ap_uintILi49EEC1El(%struct.ap_uint* getelementptr inbounds ([18000 x %struct.ap_uint]* @_ZL13training_data, i64 0, i64 539), i64 140723424256)
  call void @_ZN7ap_uintILi49EEC1El(%struct.ap_uint* getelementptr inbounds ([18000 x %struct.ap_uint]* @_ZL13training_data, i64 0, i64 540), i64 429033819648)
  call void @_ZN7ap_uintILi49EEC1El(%struct.ap_uint* getelementptr inbounds ([18000 x %struct.ap_uint]* @_ZL13training_data, i64 0, i64 541), i64 416113302528)
  call void @_ZN7ap_uintILi49EEC1El(%struct.ap_uint* getelementptr inbounds ([18000 x %struct.ap_uint]* @_ZL13training_data, i64 0, i64 542), i64 975566376448)
  call void @_ZN7ap_uintILi49EEC1El(%struct.ap_uint* getelementptr inbounds ([18000 x %struct.ap_uint]* @_ZL13training_data, i64 0, i64 543), i64 489195081216)
  call void @_ZN7ap_uintILi49EEC1El(%struct.ap_uint* getelementptr inbounds ([18000 x %struct.ap_uint]* @_ZL13training_data, i64 0, i64 544), i64 154154274304)
  call void @_ZN7ap_uintILi49EEC1El(%struct.ap_uint* getelementptr inbounds ([18000 x %struct.ap_uint]* @_ZL13training_data, i64 0, i64 545), i64 420433202696)
  call void @_ZN7ap_uintILi49EEC1El(%struct.ap_uint* getelementptr inbounds ([18000 x %struct.ap_uint]* @_ZL13training_data, i64 0, i64 546), i64 968083934720)
  call void @_ZN7ap_uintILi49EEC1El(%struct.ap_uint* getelementptr inbounds ([18000 x %struct.ap_uint]* @_ZL13training_data, i64 0, i64 547), i64 841348583176)
  call void @_ZN7ap_uintILi49EEC1El(%struct.ap_uint* getelementptr inbounds ([18000 x %struct.ap_uint]* @_ZL13training_data, i64 0, i64 548), i64 488389971456)
  call void @_ZN7ap_uintILi49EEC1El(%struct.ap_uint* getelementptr inbounds ([18000 x %struct.ap_uint]* @_ZL13training_data, i64 0, i64 549), i64 214317112320)
  call void @_ZN7ap_uintILi49EEC1El(%struct.ap_uint* getelementptr inbounds ([18000 x %struct.ap_uint]* @_ZL13training_data, i64 0, i64 550), i64 969090567688)
  call void @_ZN7ap_uintILi49EEC1El(%struct.ap_uint* getelementptr inbounds ([18000 x %struct.ap_uint]* @_ZL13training_data, i64 0, i64 551), i64 426884566528)
  call void @_ZN7ap_uintILi49EEC1El(%struct.ap_uint* getelementptr inbounds ([18000 x %struct.ap_uint]* @_ZL13training_data, i64 0, i64 552), i64 978821422592)
  call void @_ZN7ap_uintILi49EEC1El(%struct.ap_uint* getelementptr inbounds ([18000 x %struct.ap_uint]* @_ZL13training_data, i64 0, i64 553), i64 209971649536)
  call void @_ZN7ap_uintILi49EEC1El(%struct.ap_uint* getelementptr inbounds ([18000 x %struct.ap_uint]* @_ZL13training_data, i64 0, i64 554), i64 490235075584)
  call void @_ZN7ap_uintILi49EEC1El(%struct.ap_uint* getelementptr inbounds ([18000 x %struct.ap_uint]* @_ZL13training_data, i64 0, i64 555), i64 289445216768)
  call void @_ZN7ap_uintILi49EEC1El(%struct.ap_uint* getelementptr inbounds ([18000 x %struct.ap_uint]* @_ZL13training_data, i64 0, i64 556), i64 419875982336)
  call void @_ZN7ap_uintILi49EEC1El(%struct.ap_uint* getelementptr inbounds ([18000 x %struct.ap_uint]* @_ZL13training_data, i64 0, i64 557), i64 419401666048)
  call void @_ZN7ap_uintILi49EEC1El(%struct.ap_uint* getelementptr inbounds ([18000 x %struct.ap_uint]* @_ZL13training_data, i64 0, i64 558), i64 419896298496)
  call void @_ZN7ap_uintILi49EEC1El(%struct.ap_uint* getelementptr inbounds ([18000 x %struct.ap_uint]* @_ZL13training_data, i64 0, i64 559), i64 415576198656)
  call void @_ZN7ap_uintILi49EEC1El(%struct.ap_uint* getelementptr inbounds ([18000 x %struct.ap_uint]* @_ZL13training_data, i64 0, i64 560), i64 420408167936)
  call void @_ZN7ap_uintILi49EEC1El(%struct.ap_uint* getelementptr inbounds ([18000 x %struct.ap_uint]* @_ZL13training_data, i64 0, i64 561), i64 489220283392)
  call void @_ZN7ap_uintILi49EEC1El(%struct.ap_uint* getelementptr inbounds ([18000 x %struct.ap_uint]* @_ZL13training_data, i64 0, i64 562), i64 282440568320)
  call void @_ZN7ap_uintILi49EEC1El(%struct.ap_uint* getelementptr inbounds ([18000 x %struct.ap_uint]* @_ZL13training_data, i64 0, i64 563), i64 415580359680)
  call void @_ZN7ap_uintILi49EEC1El(%struct.ap_uint* getelementptr inbounds ([18000 x %struct.ap_uint]* @_ZL13training_data, i64 0, i64 564), i64 145563885056)
  call void @_ZN7ap_uintILi49EEC1El(%struct.ap_uint* getelementptr inbounds ([18000 x %struct.ap_uint]* @_ZL13training_data, i64 0, i64 565), i64 966976638464)
  call void @_ZN7ap_uintILi49EEC1El(%struct.ap_uint* getelementptr inbounds ([18000 x %struct.ap_uint]* @_ZL13training_data, i64 0, i64 566), i64 978823466760)
  call void @_ZN7ap_uintILi49EEC1El(%struct.ap_uint* getelementptr inbounds ([18000 x %struct.ap_uint]* @_ZL13training_data, i64 0, i64 567), i64 419892759552)
  call void @_ZN7ap_uintILi49EEC1El(%struct.ap_uint* getelementptr inbounds ([18000 x %struct.ap_uint]* @_ZL13training_data, i64 0, i64 568), i64 415584553984)
  call void @_ZN7ap_uintILi49EEC1El(%struct.ap_uint* getelementptr inbounds ([18000 x %struct.ap_uint]* @_ZL13training_data, i64 0, i64 569), i64 145001614848)
  call void @_ZN7ap_uintILi49EEC1El(%struct.ap_uint* getelementptr inbounds ([18000 x %struct.ap_uint]* @_ZL13training_data, i64 0, i64 570), i64 420477895680)
  call void @_ZN7ap_uintILi49EEC1El(%struct.ap_uint* getelementptr inbounds ([18000 x %struct.ap_uint]* @_ZL13training_data, i64 0, i64 571), i64 489195085568)
  call void @_ZN7ap_uintILi49EEC1El(%struct.ap_uint* getelementptr inbounds ([18000 x %struct.ap_uint]* @_ZL13training_data, i64 0, i64 572), i64 417728498688)
  call void @_ZN7ap_uintILi49EEC1El(%struct.ap_uint* getelementptr inbounds ([18000 x %struct.ap_uint]* @_ZL13training_data, i64 0, i64 573), i64 140685806592)
  call void @_ZN7ap_uintILi49EEC1El(%struct.ap_uint* getelementptr inbounds ([18000 x %struct.ap_uint]* @_ZL13training_data, i64 0, i64 574), i64 420475342336)
  call void @_ZN7ap_uintILi49EEC1El(%struct.ap_uint* getelementptr inbounds ([18000 x %struct.ap_uint]* @_ZL13training_data, i64 0, i64 575), i64 1038950960640)
  call void @_ZN7ap_uintILi49EEC1El(%struct.ap_uint* getelementptr inbounds ([18000 x %struct.ap_uint]* @_ZL13training_data, i64 0, i64 576), i64 977715957248)
  call void @_ZN7ap_uintILi49EEC1El(%struct.ap_uint* getelementptr inbounds ([18000 x %struct.ap_uint]* @_ZL13training_data, i64 0, i64 577), i64 970164375040)
  call void @_ZN7ap_uintILi49EEC1El(%struct.ap_uint* getelementptr inbounds ([18000 x %struct.ap_uint]* @_ZL13training_data, i64 0, i64 578), i64 419343175168)
  call void @_ZN7ap_uintILi49EEC1El(%struct.ap_uint* getelementptr inbounds ([18000 x %struct.ap_uint]* @_ZL13training_data, i64 0, i64 579), i64 417186713088)
  call void @_ZN7ap_uintILi49EEC1El(%struct.ap_uint* getelementptr inbounds ([18000 x %struct.ap_uint]* @_ZL13training_data, i64 0, i64 580), i64 1044285787648)
  call void @_ZN7ap_uintILi49EEC1Ej(%struct.ap_uint* getelementptr inbounds ([18000 x %struct.ap_uint]* @_ZL13training_data, i64 0, i64 581), i32 -472966144)
  call void @_ZN7ap_uintILi49EEC1El(%struct.ap_uint* getelementptr inbounds ([18000 x %struct.ap_uint]* @_ZL13training_data, i64 0, i64 582), i64 968092519936)
  call void @_ZN7ap_uintILi49EEC1El(%struct.ap_uint* getelementptr inbounds ([18000 x %struct.ap_uint]* @_ZL13training_data, i64 0, i64 583), i64 420408499712)
  call void @_ZN7ap_uintILi49EEC1El(%struct.ap_uint* getelementptr inbounds ([18000 x %struct.ap_uint]* @_ZL13training_data, i64 0, i64 584), i64 420412197888)
  call void @_ZN7ap_uintILi49EEC1El(%struct.ap_uint* getelementptr inbounds ([18000 x %struct.ap_uint]* @_ZL13training_data, i64 0, i64 585), i64 488138186240)
  call void @_ZN7ap_uintILi49EEC1El(%struct.ap_uint* getelementptr inbounds ([18000 x %struct.ap_uint]* @_ZL13training_data, i64 0, i64 586), i64 415580359680)
  call void @_ZN7ap_uintILi49EEC1El(%struct.ap_uint* getelementptr inbounds ([18000 x %struct.ap_uint]* @_ZL13training_data, i64 0, i64 587), i64 970231160576)
  call void @_ZN7ap_uintILi49EEC1El(%struct.ap_uint* getelementptr inbounds ([18000 x %struct.ap_uint]* @_ZL13training_data, i64 0, i64 588), i64 489153305600)
  call void @_ZN7ap_uintILi49EEC1El(%struct.ap_uint* getelementptr inbounds ([18000 x %struct.ap_uint]* @_ZL13training_data, i64 0, i64 589), i64 1038951095312)
  call void @_ZN7ap_uintILi49EEC1Ej(%struct.ap_uint* getelementptr inbounds ([18000 x %struct.ap_uint]* @_ZL13training_data, i64 0, i64 590), i32 -498791424)
  call void @_ZN7ap_uintILi49EEC1El(%struct.ap_uint* getelementptr inbounds ([18000 x %struct.ap_uint]* @_ZL13training_data, i64 0, i64 591), i64 489203539456)
  call void @_ZN7ap_uintILi49EEC1El(%struct.ap_uint* getelementptr inbounds ([18000 x %struct.ap_uint]* @_ZL13training_data, i64 0, i64 592), i64 420475800576)
  call void @_ZN7ap_uintILi49EEC1El(%struct.ap_uint* getelementptr inbounds ([18000 x %struct.ap_uint]* @_ZL13training_data, i64 0, i64 593), i64 420475346432)
  call void @_ZN7ap_uintILi49EEC1El(%struct.ap_uint* getelementptr inbounds ([18000 x %struct.ap_uint]* @_ZL13training_data, i64 0, i64 594), i64 417220591616)
  call void @_ZN7ap_uintILi49EEC1El(%struct.ap_uint* getelementptr inbounds ([18000 x %struct.ap_uint]* @_ZL13training_data, i64 0, i64 595), i64 1047507082752)
  call void @_ZN7ap_uintILi49EEC1El(%struct.ap_uint* getelementptr inbounds ([18000 x %struct.ap_uint]* @_ZL13training_data, i64 0, i64 596), i64 488054266880)
  call void @_ZN7ap_uintILi49EEC1El(%struct.ap_uint* getelementptr inbounds ([18000 x %struct.ap_uint]* @_ZL13training_data, i64 0, i64 597), i64 15114665984)
  call void @_ZN7ap_uintILi49EEC1El(%struct.ap_uint* getelementptr inbounds ([18000 x %struct.ap_uint]* @_ZL13training_data, i64 0, i64 598), i64 1038883851776)
  call void @_ZN7ap_uintILi49EEC1El(%struct.ap_uint* getelementptr inbounds ([18000 x %struct.ap_uint]* @_ZL13training_data, i64 0, i64 599), i64 1035695922688)
  call void @_ZN7ap_uintILi49EEC1El(%struct.ap_uint* getelementptr inbounds ([18000 x %struct.ap_uint]* @_ZL13training_data, i64 0, i64 600), i64 72537217024)
  call void @_ZN7ap_uintILi49EEC1El(%struct.ap_uint* getelementptr inbounds ([18000 x %struct.ap_uint]* @_ZL13training_data, i64 0, i64 601), i64 489203670016)
  call void @_ZN7ap_uintILi49EEC1El(%struct.ap_uint* getelementptr inbounds ([18000 x %struct.ap_uint]* @_ZL13training_data, i64 0, i64 602), i64 840854114048)
  call void @_ZN7ap_uintILi49EEC1El(%struct.ap_uint* getelementptr inbounds ([18000 x %struct.ap_uint]* @_ZL13training_data, i64 0, i64 603), i64 489195281920)
  call void @_ZN7ap_uintILi49EEC1El(%struct.ap_uint* getelementptr inbounds ([18000 x %struct.ap_uint]* @_ZL13training_data, i64 0, i64 604), i64 419401862656)
  call void @_ZN7ap_uintILi49EEC1El(%struct.ap_uint* getelementptr inbounds ([18000 x %struct.ap_uint]* @_ZL13training_data, i64 0, i64 605), i64 415584554496)
  call void @_ZN7ap_uintILi49EEC1El(%struct.ap_uint* getelementptr inbounds ([18000 x %struct.ap_uint]* @_ZL13training_data, i64 0, i64 606), i64 154155912704)
  call void @_ZN7ap_uintILi49EEC1El(%struct.ap_uint* getelementptr inbounds ([18000 x %struct.ap_uint]* @_ZL13training_data, i64 0, i64 607), i64 841348583168)
  call void @_ZN7ap_uintILi49EEC1El(%struct.ap_uint* getelementptr inbounds ([18000 x %struct.ap_uint]* @_ZL13training_data, i64 0, i64 608), i64 418261011968)
  call void @_ZN7ap_uintILi49EEC1El(%struct.ap_uint* getelementptr inbounds ([18000 x %struct.ap_uint]* @_ZL13training_data, i64 0, i64 609), i64 418294373888)
  call void @_ZN7ap_uintILi49EEC1El(%struct.ap_uint* getelementptr inbounds ([18000 x %struct.ap_uint]* @_ZL13training_data, i64 0, i64 610), i64 497785212416)
  call void @_ZN7ap_uintILi49EEC1El(%struct.ap_uint* getelementptr inbounds ([18000 x %struct.ap_uint]* @_ZL13training_data, i64 0, i64 611), i64 488121404928)
  call void @_ZN7ap_uintILi49EEC1El(%struct.ap_uint* getelementptr inbounds ([18000 x %struct.ap_uint]* @_ZL13training_data, i64 0, i64 612), i64 484836838400)
  call void @_ZN7ap_uintILi49EEC1El(%struct.ap_uint* getelementptr inbounds ([18000 x %struct.ap_uint]* @_ZL13training_data, i64 0, i64 613), i64 420483763712)
  call void @_ZN7ap_uintILi49EEC1El(%struct.ap_uint* getelementptr inbounds ([18000 x %struct.ap_uint]* @_ZL13training_data, i64 0, i64 614), i64 488121404928)
  call void @_ZN7ap_uintILi49EEC1El(%struct.ap_uint* getelementptr inbounds ([18000 x %struct.ap_uint]* @_ZL13training_data, i64 0, i64 615), i64 214325468160)
  call void @_ZN7ap_uintILi49EEC1El(%struct.ap_uint* getelementptr inbounds ([18000 x %struct.ap_uint]* @_ZL13training_data, i64 0, i64 616), i64 209438837760)
  call void @_ZN7ap_uintILi49EEC1El(%struct.ap_uint* getelementptr inbounds ([18000 x %struct.ap_uint]* @_ZL13training_data, i64 0, i64 617), i64 145002142720)
  call void @_ZN7ap_uintILi49EEC1El(%struct.ap_uint* getelementptr inbounds ([18000 x %struct.ap_uint]* @_ZL13training_data, i64 0, i64 618), i64 8127479808)
  call void @_ZN7ap_uintILi49EEC1El(%struct.ap_uint* getelementptr inbounds ([18000 x %struct.ap_uint]* @_ZL13training_data, i64 0, i64 619), i64 283036851712)
  call void @_ZN7ap_uintILi49EEC1El(%struct.ap_uint* getelementptr inbounds ([18000 x %struct.ap_uint]* @_ZL13training_data, i64 0, i64 620), i64 145530357248)
  call void @_ZN7ap_uintILi49EEC1El(%struct.ap_uint* getelementptr inbounds ([18000 x %struct.ap_uint]* @_ZL13training_data, i64 0, i64 621), i64 769441173248)
  call void @_ZN7ap_uintILi49EEC1El(%struct.ap_uint* getelementptr inbounds ([18000 x %struct.ap_uint]* @_ZL13training_data, i64 0, i64 622), i64 418336017920)
  call void @_ZN7ap_uintILi49EEC1El(%struct.ap_uint* getelementptr inbounds ([18000 x %struct.ap_uint]* @_ZL13training_data, i64 0, i64 623), i64 488054234640)
  call void @_ZN7ap_uintILi49EEC1El(%struct.ap_uint* getelementptr inbounds ([18000 x %struct.ap_uint]* @_ZL13training_data, i64 0, i64 624), i64 213184879616)
  call void @_ZN7ap_uintILi49EEC1El(%struct.ap_uint* getelementptr inbounds ([18000 x %struct.ap_uint]* @_ZL13training_data, i64 0, i64 625), i64 976640052736)
  call void @_ZN7ap_uintILi49EEC1El(%struct.ap_uint* getelementptr inbounds ([18000 x %struct.ap_uint]* @_ZL13training_data, i64 0, i64 626), i64 485973662720)
  call void @_ZN7ap_uintILi49EEC1El(%struct.ap_uint* getelementptr inbounds ([18000 x %struct.ap_uint]* @_ZL13training_data, i64 0, i64 627), i64 420492320256)
  call void @_ZN7ap_uintILi49EEC1El(%struct.ap_uint* getelementptr inbounds ([18000 x %struct.ap_uint]* @_ZL13training_data, i64 0, i64 628), i64 978787798528)
  call void @_ZN7ap_uintILi49EEC1El(%struct.ap_uint* getelementptr inbounds ([18000 x %struct.ap_uint]* @_ZL13training_data, i64 0, i64 629), i64 416134138880)
  call void @_ZN7ap_uintILi49EEC1El(%struct.ap_uint* getelementptr inbounds ([18000 x %struct.ap_uint]* @_ZL13training_data, i64 0, i64 630), i64 419875851264)
  call void @_ZN7ap_uintILi49EEC1El(%struct.ap_uint* getelementptr inbounds ([18000 x %struct.ap_uint]* @_ZL13training_data, i64 0, i64 631), i64 494532136448)
  call void @_ZN7ap_uintILi49EEC1El(%struct.ap_uint* getelementptr inbounds ([18000 x %struct.ap_uint]* @_ZL13training_data, i64 0, i64 632), i64 967483657728)
  call void @_ZN7ap_uintILi49EEC1El(%struct.ap_uint* getelementptr inbounds ([18000 x %struct.ap_uint]* @_ZL13training_data, i64 0, i64 633), i64 209954872320)
  call void @_ZN7ap_uintILi49EEC1El(%struct.ap_uint* getelementptr inbounds ([18000 x %struct.ap_uint]* @_ZL13training_data, i64 0, i64 634), i64 970231483904)
  call void @_ZN7ap_uintILi49EEC1El(%struct.ap_uint* getelementptr inbounds ([18000 x %struct.ap_uint]* @_ZL13training_data, i64 0, i64 635), i64 417723616768)
  call void @_ZN7ap_uintILi49EEC1El(%struct.ap_uint* getelementptr inbounds ([18000 x %struct.ap_uint]* @_ZL13training_data, i64 0, i64 636), i64 489195150848)
  call void @_ZN7ap_uintILi49EEC1El(%struct.ap_uint* getelementptr inbounds ([18000 x %struct.ap_uint]* @_ZL13training_data, i64 0, i64 637), i64 830048898560)
  call void @_ZN7ap_uintILi49EEC1El(%struct.ap_uint* getelementptr inbounds ([18000 x %struct.ap_uint]* @_ZL13training_data, i64 0, i64 638), i64 967546539776)
  call void @_ZN7ap_uintILi49EEC1El(%struct.ap_uint* getelementptr inbounds ([18000 x %struct.ap_uint]* @_ZL13training_data, i64 0, i64 639), i64 832192218624)
  call void @_ZN7ap_uintILi49EEC1El(%struct.ap_uint* getelementptr inbounds ([18000 x %struct.ap_uint]* @_ZL13training_data, i64 0, i64 640), i64 145563885056)
  call void @_ZN7ap_uintILi49EEC1El(%struct.ap_uint* getelementptr inbounds ([18000 x %struct.ap_uint]* @_ZL13training_data, i64 0, i64 641), i64 417187270144)
  call void @_ZN7ap_uintILi49EEC1El(%struct.ap_uint* getelementptr inbounds ([18000 x %struct.ap_uint]* @_ZL13training_data, i64 0, i64 642), i64 489128041984)
  call void @_ZN7ap_uintILi49EEC1El(%struct.ap_uint* getelementptr inbounds ([18000 x %struct.ap_uint]* @_ZL13training_data, i64 0, i64 643), i64 489203375104)
  call void @_ZN7ap_uintILi49EEC1El(%struct.ap_uint* getelementptr inbounds ([18000 x %struct.ap_uint]* @_ZL13training_data, i64 0, i64 644), i64 840853458432)
  call void @_ZN7ap_uintILi49EEC1El(%struct.ap_uint* getelementptr inbounds ([18000 x %struct.ap_uint]* @_ZL13training_data, i64 0, i64 645), i64 420484025856)
  call void @_ZN7ap_uintILi49EEC1El(%struct.ap_uint* getelementptr inbounds ([18000 x %struct.ap_uint]* @_ZL13training_data, i64 0, i64 646), i64 485973663232)
  call void @_ZN7ap_uintILi49EEC1El(%struct.ap_uint* getelementptr inbounds ([18000 x %struct.ap_uint]* @_ZL13training_data, i64 0, i64 647), i64 214325500928)
  call void @_ZN7ap_uintILi49EEC1El(%struct.ap_uint* getelementptr inbounds ([18000 x %struct.ap_uint]* @_ZL13training_data, i64 0, i64 648), i64 141256629248)
  call void @_ZN7ap_uintILi49EEC1El(%struct.ap_uint* getelementptr inbounds ([18000 x %struct.ap_uint]* @_ZL13training_data, i64 0, i64 649), i64 1044287954432)
  call void @_ZN7ap_uintILi49EEC1El(%struct.ap_uint* getelementptr inbounds ([18000 x %struct.ap_uint]* @_ZL13training_data, i64 0, i64 650), i64 279815159816)
  call void @_ZN7ap_uintILi49EEC1El(%struct.ap_uint* getelementptr inbounds ([18000 x %struct.ap_uint]* @_ZL13training_data, i64 0, i64 651), i64 420416949760)
  call void @_ZN7ap_uintILi49EEC1El(%struct.ap_uint* getelementptr inbounds ([18000 x %struct.ap_uint]* @_ZL13training_data, i64 0, i64 652), i64 420477439488)
  call void @_ZN7ap_uintILi49EEC1El(%struct.ap_uint* getelementptr inbounds ([18000 x %struct.ap_uint]* @_ZL13training_data, i64 0, i64 653), i64 489194888192)
  call void @_ZN7ap_uintILi49EEC1El(%struct.ap_uint* getelementptr inbounds ([18000 x %struct.ap_uint]* @_ZL13training_data, i64 0, i64 654), i64 966978477568)
  call void @_ZN7ap_uintILi49EEC1El(%struct.ap_uint* getelementptr inbounds ([18000 x %struct.ap_uint]* @_ZL13training_data, i64 0, i64 655), i64 417187335680)
  call void @_ZN7ap_uintILi49EEC1El(%struct.ap_uint* getelementptr inbounds ([18000 x %struct.ap_uint]* @_ZL13training_data, i64 0, i64 656), i64 420492577792)
  call void @_ZN7ap_uintILi49EEC1El(%struct.ap_uint* getelementptr inbounds ([18000 x %struct.ap_uint]* @_ZL13training_data, i64 0, i64 657), i64 5415177216)
  call void @_ZN7ap_uintILi49EEC1El(%struct.ap_uint* getelementptr inbounds ([18000 x %struct.ap_uint]* @_ZL13training_data, i64 0, i64 658), i64 8167332864)
  call void @_ZN7ap_uintILi49EEC1El(%struct.ap_uint* getelementptr inbounds ([18000 x %struct.ap_uint]* @_ZL13training_data, i64 0, i64 659), i64 429065604608)
  call void @_ZN7ap_uintILi49EEC1El(%struct.ap_uint* getelementptr inbounds ([18000 x %struct.ap_uint]* @_ZL13training_data, i64 0, i64 660), i64 72533089280)
  call void @_ZN7ap_uintILi49EEC1El(%struct.ap_uint* getelementptr inbounds ([18000 x %struct.ap_uint]* @_ZL13training_data, i64 0, i64 661), i64 420407971336)
  call void @_ZN7ap_uintILi49EEC1El(%struct.ap_uint* getelementptr inbounds ([18000 x %struct.ap_uint]* @_ZL13training_data, i64 0, i64 662), i64 415580359680)
  call void @_ZN7ap_uintILi49EEC1El(%struct.ap_uint* getelementptr inbounds ([18000 x %struct.ap_uint]* @_ZL13training_data, i64 0, i64 663), i64 145555921920)
  call void @_ZN7ap_uintILi49EEC1El(%struct.ap_uint* getelementptr inbounds ([18000 x %struct.ap_uint]* @_ZL13training_data, i64 0, i64 664), i64 214317341696)
  call void @_ZN7ap_uintILi49EEC1El(%struct.ap_uint* getelementptr inbounds ([18000 x %struct.ap_uint]* @_ZL13training_data, i64 0, i64 665), i64 417732334080)
  call void @_ZN7ap_uintILi49EEC1El(%struct.ap_uint* getelementptr inbounds ([18000 x %struct.ap_uint]* @_ZL13training_data, i64 0, i64 666), i64 415651929088)
  call void @_ZN7ap_uintILi49EEC1El(%struct.ap_uint* getelementptr inbounds ([18000 x %struct.ap_uint]* @_ZL13training_data, i64 0, i64 667), i64 291593227264)
  call void @_ZN7ap_uintILi49EEC1El(%struct.ap_uint* getelementptr inbounds ([18000 x %struct.ap_uint]* @_ZL13training_data, i64 0, i64 668), i64 419401636864)
  call void @_ZN7ap_uintILi49EEC1El(%struct.ap_uint* getelementptr inbounds ([18000 x %struct.ap_uint]* @_ZL13training_data, i64 0, i64 669), i64 280352296448)
  call void @_ZN7ap_uintILi49EEC1El(%struct.ap_uint* getelementptr inbounds ([18000 x %struct.ap_uint]* @_ZL13training_data, i64 0, i64 670), i64 415035301376)
  call void @_ZN7ap_uintILi49EEC1El(%struct.ap_uint* getelementptr inbounds ([18000 x %struct.ap_uint]* @_ZL13training_data, i64 0, i64 671), i64 488054005264)
  call void @_ZN7ap_uintILi49EEC1El(%struct.ap_uint* getelementptr inbounds ([18000 x %struct.ap_uint]* @_ZL13training_data, i64 0, i64 672), i64 214321273856)
  call void @_ZN7ap_uintILi49EEC1El(%struct.ap_uint* getelementptr inbounds ([18000 x %struct.ap_uint]* @_ZL13training_data, i64 0, i64 673), i64 418269568000)
  call void @_ZN7ap_uintILi49EEC1El(%struct.ap_uint* getelementptr inbounds ([18000 x %struct.ap_uint]* @_ZL13training_data, i64 0, i64 674), i64 978821353224)
  call void @_ZN7ap_uintILi49EEC1El(%struct.ap_uint* getelementptr inbounds ([18000 x %struct.ap_uint]* @_ZL13training_data, i64 0, i64 675), i64 283036851200)
  call void @_ZN7ap_uintILi49EEC1El(%struct.ap_uint* getelementptr inbounds ([18000 x %struct.ap_uint]* @_ZL13training_data, i64 0, i64 676), i64 419879554560)
  call void @_ZN7ap_uintILi49EEC1El(%struct.ap_uint* getelementptr inbounds ([18000 x %struct.ap_uint]* @_ZL13training_data, i64 0, i64 677), i64 967479430656)
  call void @_ZN7ap_uintILi49EEC1El(%struct.ap_uint* getelementptr inbounds ([18000 x %struct.ap_uint]* @_ZL13training_data, i64 0, i64 678), i64 278141406720)
  call void @_ZN7ap_uintILi49EEC1El(%struct.ap_uint* getelementptr inbounds ([18000 x %struct.ap_uint]* @_ZL13training_data, i64 0, i64 679), i64 420408565248)
  call void @_ZN7ap_uintILi49EEC1El(%struct.ap_uint* getelementptr inbounds ([18000 x %struct.ap_uint]* @_ZL13training_data, i64 0, i64 680), i64 420483763712)
  call void @_ZN7ap_uintILi49EEC1El(%struct.ap_uint* getelementptr inbounds ([18000 x %struct.ap_uint]* @_ZL13training_data, i64 0, i64 681), i64 489203670016)
  call void @_ZN7ap_uintILi49EEC1El(%struct.ap_uint* getelementptr inbounds ([18000 x %struct.ap_uint]* @_ZL13training_data, i64 0, i64 682), i64 420408561152)
  call void @_ZN7ap_uintILi49EEC1El(%struct.ap_uint* getelementptr inbounds ([18000 x %struct.ap_uint]* @_ZL13training_data, i64 0, i64 683), i64 488121343488)
  call void @_ZN7ap_uintILi49EEC1El(%struct.ap_uint* getelementptr inbounds ([18000 x %struct.ap_uint]* @_ZL13training_data, i64 0, i64 684), i64 974492634624)
  call void @_ZN7ap_uintILi49EEC1El(%struct.ap_uint* getelementptr inbounds ([18000 x %struct.ap_uint]* @_ZL13training_data, i64 0, i64 685), i64 838664228352)
  call void @_ZN7ap_uintILi49EEC1El(%struct.ap_uint* getelementptr inbounds ([18000 x %struct.ap_uint]* @_ZL13training_data, i64 0, i64 686), i64 420433862144)
  call void @_ZN7ap_uintILi49EEC1El(%struct.ap_uint* getelementptr inbounds ([18000 x %struct.ap_uint]* @_ZL13training_data, i64 0, i64 687), i64 417744621056)
  call void @_ZN7ap_uintILi49EEC1El(%struct.ap_uint* getelementptr inbounds ([18000 x %struct.ap_uint]* @_ZL13training_data, i64 0, i64 688), i64 832790367744)
  call void @_ZN7ap_uintILi49EEC1El(%struct.ap_uint* getelementptr inbounds ([18000 x %struct.ap_uint]* @_ZL13training_data, i64 0, i64 689), i64 489136135168)
  call void @_ZN7ap_uintILi49EEC1El(%struct.ap_uint* getelementptr inbounds ([18000 x %struct.ap_uint]* @_ZL13training_data, i64 0, i64 690), i64 417727843328)
  call void @_ZN7ap_uintILi49EEC1El(%struct.ap_uint* getelementptr inbounds ([18000 x %struct.ap_uint]* @_ZL13training_data, i64 0, i64 691), i64 489211928080)
  call void @_ZN7ap_uintILi49EEC1El(%struct.ap_uint* getelementptr inbounds ([18000 x %struct.ap_uint]* @_ZL13training_data, i64 0, i64 692), i64 282436374016)
  call void @_ZN7ap_uintILi49EEC1El(%struct.ap_uint* getelementptr inbounds ([18000 x %struct.ap_uint]* @_ZL13training_data, i64 0, i64 693), i64 420416916480)
  call void @_ZN7ap_uintILi49EEC1El(%struct.ap_uint* getelementptr inbounds ([18000 x %struct.ap_uint]* @_ZL13training_data, i64 0, i64 694), i64 485942595072)
  call void @_ZN7ap_uintILi49EEC1El(%struct.ap_uint* getelementptr inbounds ([18000 x %struct.ap_uint]* @_ZL13training_data, i64 0, i64 695), i64 420408499712)
  call void @_ZN7ap_uintILi49EEC1El(%struct.ap_uint* getelementptr inbounds ([18000 x %struct.ap_uint]* @_ZL13training_data, i64 0, i64 696), i64 488121277440)
  call void @_ZN7ap_uintILi49EEC1El(%struct.ap_uint* getelementptr inbounds ([18000 x %struct.ap_uint]* @_ZL13training_data, i64 0, i64 697), i64 420477705744)
  call void @_ZN7ap_uintILi49EEC1El(%struct.ap_uint* getelementptr inbounds ([18000 x %struct.ap_uint]* @_ZL13training_data, i64 0, i64 698), i64 208889777152)
  call void @_ZN7ap_uintILi49EEC1El(%struct.ap_uint* getelementptr inbounds ([18000 x %struct.ap_uint]* @_ZL13training_data, i64 0, i64 699), i64 1038900764176)
  call void @_ZN7ap_uintILi49EEC1El(%struct.ap_uint* getelementptr inbounds ([18000 x %struct.ap_uint]* @_ZL13training_data, i64 0, i64 700), i64 419401632768)
  call void @_ZN7ap_uintILi49EEC1El(%struct.ap_uint* getelementptr inbounds ([18000 x %struct.ap_uint]* @_ZL13training_data, i64 0, i64 701), i64 209434512384)
  call void @_ZN7ap_uintILi49EEC1El(%struct.ap_uint* getelementptr inbounds ([18000 x %struct.ap_uint]* @_ZL13training_data, i64 0, i64 702), i64 488129633280)
  call void @_ZN7ap_uintILi49EEC1El(%struct.ap_uint* getelementptr inbounds ([18000 x %struct.ap_uint]* @_ZL13training_data, i64 0, i64 703), i64 419401600512)
  call void @_ZN7ap_uintILi49EEC1El(%struct.ap_uint* getelementptr inbounds ([18000 x %struct.ap_uint]* @_ZL13training_data, i64 0, i64 704), i64 419871690240)
  call void @_ZN7ap_uintILi49EEC1El(%struct.ap_uint* getelementptr inbounds ([18000 x %struct.ap_uint]* @_ZL13training_data, i64 0, i64 705), i64 420484029952)
  call void @_ZN7ap_uintILi49EEC1El(%struct.ap_uint* getelementptr inbounds ([18000 x %struct.ap_uint]* @_ZL13training_data, i64 0, i64 706), i64 283038817792)
  call void @_ZN7ap_uintILi49EEC1El(%struct.ap_uint* getelementptr inbounds ([18000 x %struct.ap_uint]* @_ZL13training_data, i64 0, i64 707), i64 209963392000)
  call void @_ZN7ap_uintILi49EEC1El(%struct.ap_uint* getelementptr inbounds ([18000 x %struct.ap_uint]* @_ZL13training_data, i64 0, i64 708), i64 484858207232)
  call void @_ZN7ap_uintILi49EEC1El(%struct.ap_uint* getelementptr inbounds ([18000 x %struct.ap_uint]* @_ZL13training_data, i64 0, i64 709), i64 967513312768)
  call void @_ZN7ap_uintILi49EEC1El(%struct.ap_uint* getelementptr inbounds ([18000 x %struct.ap_uint]* @_ZL13training_data, i64 0, i64 710), i64 283036458496)
  call void @_ZN7ap_uintILi49EEC1El(%struct.ap_uint* getelementptr inbounds ([18000 x %struct.ap_uint]* @_ZL13training_data, i64 0, i64 711), i64 419342683648)
  call void @_ZN7ap_uintILi49EEC1El(%struct.ap_uint* getelementptr inbounds ([18000 x %struct.ap_uint]* @_ZL13training_data, i64 0, i64 712), i64 489128041984)
  call void @_ZN7ap_uintILi49EEC1El(%struct.ap_uint* getelementptr inbounds ([18000 x %struct.ap_uint]* @_ZL13training_data, i64 0, i64 713), i64 141235783680)
  call void @_ZN7ap_uintILi49EEC1El(%struct.ap_uint* getelementptr inbounds ([18000 x %struct.ap_uint]* @_ZL13training_data, i64 0, i64 714), i64 485906812416)
  call void @_ZN7ap_uintILi49EEC1El(%struct.ap_uint* getelementptr inbounds ([18000 x %struct.ap_uint]* @_ZL13training_data, i64 0, i64 715), i64 417186778624)
  call void @_ZN7ap_uintILi49EEC1El(%struct.ap_uint* getelementptr inbounds ([18000 x %struct.ap_uint]* @_ZL13training_data, i64 0, i64 716), i64 145597504512)
  call void @_ZN7ap_uintILi49EEC1El(%struct.ap_uint* getelementptr inbounds ([18000 x %struct.ap_uint]* @_ZL13training_data, i64 0, i64 717), i64 420475805184)
  call void @_ZN7ap_uintILi49EEC1El(%struct.ap_uint* getelementptr inbounds ([18000 x %struct.ap_uint]* @_ZL13training_data, i64 0, i64 718), i64 967487852032)
  call void @_ZN7ap_uintILi49EEC1El(%struct.ap_uint* getelementptr inbounds ([18000 x %struct.ap_uint]* @_ZL13training_data, i64 0, i64 719), i64 214325467136)
  call void @_ZN7ap_uintILi49EEC1El(%struct.ap_uint* getelementptr inbounds ([18000 x %struct.ap_uint]* @_ZL13training_data, i64 0, i64 720), i64 420475604480)
  call void @_ZN7ap_uintILi49EEC1El(%struct.ap_uint* getelementptr inbounds ([18000 x %struct.ap_uint]* @_ZL13training_data, i64 0, i64 721), i64 969703005696)
  call void @_ZN7ap_uintILi49EEC1El(%struct.ap_uint* getelementptr inbounds ([18000 x %struct.ap_uint]* @_ZL13training_data, i64 0, i64 722), i64 214250134528)
  call void @_ZN7ap_uintILi49EEC1El(%struct.ap_uint* getelementptr inbounds ([18000 x %struct.ap_uint]* @_ZL13training_data, i64 0, i64 723), i64 214325468160)
  call void @_ZN7ap_uintILi49EEC1El(%struct.ap_uint* getelementptr inbounds ([18000 x %struct.ap_uint]* @_ZL13training_data, i64 0, i64 724), i64 415580490752)
  call void @_ZN7ap_uintILi49EEC1El(%struct.ap_uint* getelementptr inbounds ([18000 x %struct.ap_uint]* @_ZL13training_data, i64 0, i64 725), i64 488053738496)
  call void @_ZN7ap_uintILi49EEC1El(%struct.ap_uint* getelementptr inbounds ([18000 x %struct.ap_uint]* @_ZL13training_data, i64 0, i64 726), i64 978821422592)
  call void @_ZN7ap_uintILi49EEC1El(%struct.ap_uint* getelementptr inbounds ([18000 x %struct.ap_uint]* @_ZL13training_data, i64 0, i64 727), i64 420416425472)
  call void @_ZN7ap_uintILi49EEC1El(%struct.ap_uint* getelementptr inbounds ([18000 x %struct.ap_uint]* @_ZL13training_data, i64 0, i64 728), i64 968016890880)
  call void @_ZN7ap_uintILi49EEC1El(%struct.ap_uint* getelementptr inbounds ([18000 x %struct.ap_uint]* @_ZL13training_data, i64 0, i64 729), i64 419880078856)
  call void @_ZN7ap_uintILi49EEC1El(%struct.ap_uint* getelementptr inbounds ([18000 x %struct.ap_uint]* @_ZL13training_data, i64 0, i64 730), i64 429065604608)
  call void @_ZN7ap_uintILi49EEC1El(%struct.ap_uint* getelementptr inbounds ([18000 x %struct.ap_uint]* @_ZL13training_data, i64 0, i64 731), i64 969703001600)
  call void @_ZN7ap_uintILi49EEC1El(%struct.ap_uint* getelementptr inbounds ([18000 x %struct.ap_uint]* @_ZL13training_data, i64 0, i64 732), i64 489195150848)
  call void @_ZN7ap_uintILi49EEC1El(%struct.ap_uint* getelementptr inbounds ([18000 x %struct.ap_uint]* @_ZL13training_data, i64 0, i64 733), i64 484840901632)
  call void @_ZN7ap_uintILi49EEC1El(%struct.ap_uint* getelementptr inbounds ([18000 x %struct.ap_uint]* @_ZL13training_data, i64 0, i64 734), i64 209980300288)
  call void @_ZN7ap_uintILi49EEC1El(%struct.ap_uint* getelementptr inbounds ([18000 x %struct.ap_uint]* @_ZL13training_data, i64 0, i64 735), i64 420475674112)
  call void @_ZN7ap_uintILi49EEC1El(%struct.ap_uint* getelementptr inbounds ([18000 x %struct.ap_uint]* @_ZL13training_data, i64 0, i64 736), i64 214334152192)
  call void @_ZN7ap_uintILi49EEC1El(%struct.ap_uint* getelementptr inbounds ([18000 x %struct.ap_uint]* @_ZL13training_data, i64 0, i64 737), i64 283036847104)
  call void @_ZN7ap_uintILi49EEC1El(%struct.ap_uint* getelementptr inbounds ([18000 x %struct.ap_uint]* @_ZL13training_data, i64 0, i64 738), i64 145597439488)
  call void @_ZN7ap_uintILi49EEC1El(%struct.ap_uint* getelementptr inbounds ([18000 x %struct.ap_uint]* @_ZL13training_data, i64 0, i64 739), i64 975566310912)
  call void @_ZN7ap_uintILi49EEC1El(%struct.ap_uint* getelementptr inbounds ([18000 x %struct.ap_uint]* @_ZL13training_data, i64 0, i64 740), i64 1047507082752)
  call void @_ZN7ap_uintILi49EEC1El(%struct.ap_uint* getelementptr inbounds ([18000 x %struct.ap_uint]* @_ZL13training_data, i64 0, i64 741), i64 975568670464)
  call void @_ZN7ap_uintILi49EEC1El(%struct.ap_uint* getelementptr inbounds ([18000 x %struct.ap_uint]* @_ZL13training_data, i64 0, i64 742), i64 420477898240)
  call void @_ZN7ap_uintILi49EEC1El(%struct.ap_uint* getelementptr inbounds ([18000 x %struct.ap_uint]* @_ZL13training_data, i64 0, i64 743), i64 419879521792)
  call void @_ZN7ap_uintILi49EEC1El(%struct.ap_uint* getelementptr inbounds ([18000 x %struct.ap_uint]* @_ZL13training_data, i64 0, i64 744), i64 420424945160)
  call void @_ZN7ap_uintILi49EEC1El(%struct.ap_uint* getelementptr inbounds ([18000 x %struct.ap_uint]* @_ZL13training_data, i64 0, i64 745), i64 978787798536)
  call void @_ZN7ap_uintILi49EEC1El(%struct.ap_uint* getelementptr inbounds ([18000 x %struct.ap_uint]* @_ZL13training_data, i64 0, i64 746), i64 2147077820160)
  call void @_ZN7ap_uintILi49EEC1El(%struct.ap_uint* getelementptr inbounds ([18000 x %struct.ap_uint]* @_ZL13training_data, i64 0, i64 747), i64 978796383744)
  call void @_ZN7ap_uintILi49EEC1El(%struct.ap_uint* getelementptr inbounds ([18000 x %struct.ap_uint]* @_ZL13training_data, i64 0, i64 748), i64 208881130496)
  call void @_ZN7ap_uintILi49EEC1El(%struct.ap_uint* getelementptr inbounds ([18000 x %struct.ap_uint]* @_ZL13training_data, i64 0, i64 749), i64 1035729443840)
  call void @_ZN7ap_uintILi49EEC1El(%struct.ap_uint* getelementptr inbounds ([18000 x %struct.ap_uint]* @_ZL13training_data, i64 0, i64 750), i64 420417047552)
  call void @_ZN7ap_uintILi49EEC1Ej(%struct.ap_uint* getelementptr inbounds ([18000 x %struct.ap_uint]* @_ZL13training_data, i64 0, i64 751), i32 -1014562816)
  call void @_ZN7ap_uintILi49EEC1El(%struct.ap_uint* getelementptr inbounds ([18000 x %struct.ap_uint]* @_ZL13training_data, i64 0, i64 752), i64 209980430336)
  call void @_ZN7ap_uintILi49EEC1El(%struct.ap_uint* getelementptr inbounds ([18000 x %struct.ap_uint]* @_ZL13training_data, i64 0, i64 753), i64 489136524800)
  call void @_ZN7ap_uintILi49EEC1El(%struct.ap_uint* getelementptr inbounds ([18000 x %struct.ap_uint]* @_ZL13training_data, i64 0, i64 754), i64 417187335680)
  call void @_ZN7ap_uintILi49EEC1El(%struct.ap_uint* getelementptr inbounds ([18000 x %struct.ap_uint]* @_ZL13training_data, i64 0, i64 755), i64 140703112192)
  call void @_ZN7ap_uintILi49EEC1El(%struct.ap_uint* getelementptr inbounds ([18000 x %struct.ap_uint]* @_ZL13training_data, i64 0, i64 756), i64 2076185103872)
  call void @_ZN7ap_uintILi49EEC1El(%struct.ap_uint* getelementptr inbounds ([18000 x %struct.ap_uint]* @_ZL13training_data, i64 0, i64 757), i64 141235788800)
  call void @_ZN7ap_uintILi49EEC1El(%struct.ap_uint* getelementptr inbounds ([18000 x %struct.ap_uint]* @_ZL13training_data, i64 0, i64 758), i64 418261044736)
  call void @_ZN7ap_uintILi49EEC1El(%struct.ap_uint* getelementptr inbounds ([18000 x %struct.ap_uint]* @_ZL13training_data, i64 0, i64 759), i64 417186745856)
  call void @_ZN7ap_uintILi49EEC1El(%struct.ap_uint* getelementptr inbounds ([18000 x %struct.ap_uint]* @_ZL13training_data, i64 0, i64 760), i64 966976376584)
  call void @_ZN7ap_uintILi49EEC1El(%struct.ap_uint* getelementptr inbounds ([18000 x %struct.ap_uint]* @_ZL13training_data, i64 0, i64 761), i64 419401670144)
  call void @_ZN7ap_uintILi49EEC1El(%struct.ap_uint* getelementptr inbounds ([18000 x %struct.ap_uint]* @_ZL13training_data, i64 0, i64 762), i64 488121113600)
  call void @_ZN7ap_uintILi49EEC1El(%struct.ap_uint* getelementptr inbounds ([18000 x %struct.ap_uint]* @_ZL13training_data, i64 0, i64 763), i64 420416392704)
  call void @_ZN7ap_uintILi49EEC1El(%struct.ap_uint* getelementptr inbounds ([18000 x %struct.ap_uint]* @_ZL13training_data, i64 0, i64 764), i64 140166110208)
  call void @_ZN7ap_uintILi49EEC1El(%struct.ap_uint* getelementptr inbounds ([18000 x %struct.ap_uint]* @_ZL13training_data, i64 0, i64 765), i64 977747609868)
  call void @_ZN7ap_uintILi49EEC1El(%struct.ap_uint* getelementptr inbounds ([18000 x %struct.ap_uint]* @_ZL13training_data, i64 0, i64 766), i64 213245336576)
  call void @_ZN7ap_uintILi49EEC1El(%struct.ap_uint* getelementptr inbounds ([18000 x %struct.ap_uint]* @_ZL13training_data, i64 0, i64 767), i64 970164375040)
  call void @_ZN7ap_uintILi49EEC1El(%struct.ap_uint* getelementptr inbounds ([18000 x %struct.ap_uint]* @_ZL13training_data, i64 0, i64 768), i64 419401928192)
  call void @_ZN7ap_uintILi49EEC1El(%struct.ap_uint* getelementptr inbounds ([18000 x %struct.ap_uint]* @_ZL13training_data, i64 0, i64 769), i64 420416425472)
  call void @_ZN7ap_uintILi49EEC1El(%struct.ap_uint* getelementptr inbounds ([18000 x %struct.ap_uint]* @_ZL13training_data, i64 0, i64 770), i64 483759037440)
  call void @_ZN7ap_uintILi49EEC1El(%struct.ap_uint* getelementptr inbounds ([18000 x %struct.ap_uint]* @_ZL13training_data, i64 0, i64 771), i64 141260954624)
  call void @_ZN7ap_uintILi49EEC1El(%struct.ap_uint* getelementptr inbounds ([18000 x %struct.ap_uint]* @_ZL13training_data, i64 0, i64 772), i64 282441256448)
  call void @_ZN7ap_uintILi49EEC1El(%struct.ap_uint* getelementptr inbounds ([18000 x %struct.ap_uint]* @_ZL13training_data, i64 0, i64 773), i64 969123929600)
  call void @_ZN7ap_uintILi49EEC1El(%struct.ap_uint* getelementptr inbounds ([18000 x %struct.ap_uint]* @_ZL13training_data, i64 0, i64 774), i64 419879521792)
  call void @_ZN7ap_uintILi49EEC1El(%struct.ap_uint* getelementptr inbounds ([18000 x %struct.ap_uint]* @_ZL13training_data, i64 0, i64 775), i64 841348845312)
  call void @_ZN7ap_uintILi49EEC1El(%struct.ap_uint* getelementptr inbounds ([18000 x %struct.ap_uint]* @_ZL13training_data, i64 0, i64 776), i64 1938746084864)
  call void @_ZN7ap_uintILi49EEC1El(%struct.ap_uint* getelementptr inbounds ([18000 x %struct.ap_uint]* @_ZL13training_data, i64 0, i64 777), i64 417728367616)
  call void @_ZN7ap_uintILi49EEC1El(%struct.ap_uint* getelementptr inbounds ([18000 x %struct.ap_uint]* @_ZL13training_data, i64 0, i64 778), i64 209980431360)
  call void @_ZN7ap_uintILi49EEC1El(%struct.ap_uint* getelementptr inbounds ([18000 x %struct.ap_uint]* @_ZL13training_data, i64 0, i64 779), i64 417732038144)
  call void @_ZN7ap_uintILi49EEC1El(%struct.ap_uint* getelementptr inbounds ([18000 x %struct.ap_uint]* @_ZL13training_data, i64 0, i64 780), i64 282977439232)
  call void @_ZN7ap_uintILi49EEC1El(%struct.ap_uint* getelementptr inbounds ([18000 x %struct.ap_uint]* @_ZL13training_data, i64 0, i64 781), i64 841348583168)
  call void @_ZN7ap_uintILi49EEC1El(%struct.ap_uint* getelementptr inbounds ([18000 x %struct.ap_uint]* @_ZL13training_data, i64 0, i64 782), i64 830048865792)
  call void @_ZN7ap_uintILi49EEC1El(%struct.ap_uint* getelementptr inbounds ([18000 x %struct.ap_uint]* @_ZL13training_data, i64 0, i64 783), i64 417732529664)
  call void @_ZN7ap_uintILi49EEC1El(%struct.ap_uint* getelementptr inbounds ([18000 x %struct.ap_uint]* @_ZL13training_data, i64 0, i64 784), i64 483775553040)
  call void @_ZN7ap_uintILi49EEC1El(%struct.ap_uint* getelementptr inbounds ([18000 x %struct.ap_uint]* @_ZL13training_data, i64 0, i64 785), i64 489220447232)
  call void @_ZN7ap_uintILi49EEC1El(%struct.ap_uint* getelementptr inbounds ([18000 x %struct.ap_uint]* @_ZL13training_data, i64 0, i64 786), i64 214266616832)
  call void @_ZN7ap_uintILi49EEC1El(%struct.ap_uint* getelementptr inbounds ([18000 x %struct.ap_uint]* @_ZL13training_data, i64 0, i64 787), i64 419871362560)
  call void @_ZN7ap_uintILi49EEC1El(%struct.ap_uint* getelementptr inbounds ([18000 x %struct.ap_uint]* @_ZL13training_data, i64 0, i64 788), i64 426884242944)
  call void @_ZN7ap_uintILi49EEC1El(%struct.ap_uint* getelementptr inbounds ([18000 x %struct.ap_uint]* @_ZL13training_data, i64 0, i64 789), i64 488087592448)
  call void @_ZN7ap_uintILi49EEC1El(%struct.ap_uint* getelementptr inbounds ([18000 x %struct.ap_uint]* @_ZL13training_data, i64 0, i64 790), i64 978787606024)
  call void @_ZN7ap_uintILi49EEC1El(%struct.ap_uint* getelementptr inbounds ([18000 x %struct.ap_uint]* @_ZL13training_data, i64 0, i64 791), i64 420416425472)
  call void @_ZN7ap_uintILi49EEC1El(%struct.ap_uint* getelementptr inbounds ([18000 x %struct.ap_uint]* @_ZL13training_data, i64 0, i64 792), i64 420416425472)
  call void @_ZN7ap_uintILi49EEC1El(%struct.ap_uint* getelementptr inbounds ([18000 x %struct.ap_uint]* @_ZL13training_data, i64 0, i64 793), i64 415597136896)
  call void @_ZN7ap_uintILi49EEC1El(%struct.ap_uint* getelementptr inbounds ([18000 x %struct.ap_uint]* @_ZL13training_data, i64 0, i64 794), i64 969106886144)
  call void @_ZN7ap_uintILi49EEC1El(%struct.ap_uint* getelementptr inbounds ([18000 x %struct.ap_uint]* @_ZL13training_data, i64 0, i64 795), i64 489128037376)
  call void @_ZN7ap_uintILi49EEC1El(%struct.ap_uint* getelementptr inbounds ([18000 x %struct.ap_uint]* @_ZL13training_data, i64 0, i64 796), i64 488121146880)
  call void @_ZN7ap_uintILi49EEC1El(%struct.ap_uint* getelementptr inbounds ([18000 x %struct.ap_uint]* @_ZL13training_data, i64 0, i64 797), i64 971271343616)
  call void @_ZN7ap_uintILi49EEC1El(%struct.ap_uint* getelementptr inbounds ([18000 x %struct.ap_uint]* @_ZL13training_data, i64 0, i64 798), i64 976640122368)
  call void @_ZN7ap_uintILi49EEC1El(%struct.ap_uint* getelementptr inbounds ([18000 x %struct.ap_uint]* @_ZL13training_data, i64 0, i64 799), i64 420408004096)
  call void @_ZN7ap_uintILi49EEC1El(%struct.ap_uint* getelementptr inbounds ([18000 x %struct.ap_uint]* @_ZL13training_data, i64 0, i64 800), i64 145572339200)
  call void @_ZN7ap_uintILi49EEC1El(%struct.ap_uint* getelementptr inbounds ([18000 x %struct.ap_uint]* @_ZL13training_data, i64 0, i64 801), i64 419880046080)
  call void @_ZN7ap_uintILi49EEC1El(%struct.ap_uint* getelementptr inbounds ([18000 x %struct.ap_uint]* @_ZL13training_data, i64 0, i64 802), i64 429065539328)
  call void @_ZN7ap_uintILi49EEC1El(%struct.ap_uint* getelementptr inbounds ([18000 x %struct.ap_uint]* @_ZL13training_data, i64 0, i64 803), i64 417220562432)
  call void @_ZN7ap_uintILi49EEC1El(%struct.ap_uint* getelementptr inbounds ([18000 x %struct.ap_uint]* @_ZL13training_data, i64 0, i64 804), i64 489220447744)
  call void @_ZN7ap_uintILi49EEC1El(%struct.ap_uint* getelementptr inbounds ([18000 x %struct.ap_uint]* @_ZL13training_data, i64 0, i64 805), i64 145597763072)
  call void @_ZN7ap_uintILi49EEC1El(%struct.ap_uint* getelementptr inbounds ([18000 x %struct.ap_uint]* @_ZL13training_data, i64 0, i64 806), i64 489203666432)
  call void @_ZN7ap_uintILi49EEC1El(%struct.ap_uint* getelementptr inbounds ([18000 x %struct.ap_uint]* @_ZL13training_data, i64 0, i64 807), i64 976673869312)
  call void @_ZN7ap_uintILi49EEC1El(%struct.ap_uint* getelementptr inbounds ([18000 x %struct.ap_uint]* @_ZL13training_data, i64 0, i64 808), i64 966942559744)
  call void @_ZN7ap_uintILi49EEC1El(%struct.ap_uint* getelementptr inbounds ([18000 x %struct.ap_uint]* @_ZL13training_data, i64 0, i64 809), i64 420441787904)
  call void @_ZN7ap_uintILi49EEC1El(%struct.ap_uint* getelementptr inbounds ([18000 x %struct.ap_uint]* @_ZL13training_data, i64 0, i64 810), i64 489220447744)
  call void @_ZN7ap_uintILi49EEC1El(%struct.ap_uint* getelementptr inbounds ([18000 x %struct.ap_uint]* @_ZL13training_data, i64 0, i64 811), i64 415039262208)
  call void @_ZN7ap_uintILi49EEC1El(%struct.ap_uint* getelementptr inbounds ([18000 x %struct.ap_uint]* @_ZL13training_data, i64 0, i64 812), i64 420475411968)
  call void @_ZN7ap_uintILi49EEC1El(%struct.ap_uint* getelementptr inbounds ([18000 x %struct.ap_uint]* @_ZL13training_data, i64 0, i64 813), i64 967487884800)
  call void @_ZN7ap_uintILi49EEC1El(%struct.ap_uint* getelementptr inbounds ([18000 x %struct.ap_uint]* @_ZL13training_data, i64 0, i64 814), i64 487047597568)
  call void @_ZN7ap_uintILi49EEC1El(%struct.ap_uint* getelementptr inbounds ([18000 x %struct.ap_uint]* @_ZL13training_data, i64 0, i64 815), i64 967483657728)
  call void @_ZN7ap_uintILi49EEC1El(%struct.ap_uint* getelementptr inbounds ([18000 x %struct.ap_uint]* @_ZL13training_data, i64 0, i64 816), i64 420416916480)
  call void @_ZN7ap_uintILi49EEC1El(%struct.ap_uint* getelementptr inbounds ([18000 x %struct.ap_uint]* @_ZL13training_data, i64 0, i64 817), i64 420416392704)
  call void @_ZN7ap_uintILi49EEC1El(%struct.ap_uint* getelementptr inbounds ([18000 x %struct.ap_uint]* @_ZL13training_data, i64 0, i64 818), i64 283038944256)
  call void @_ZN7ap_uintILi49EEC1El(%struct.ap_uint* getelementptr inbounds ([18000 x %struct.ap_uint]* @_ZL13training_data, i64 0, i64 819), i64 418231421952)
  call void @_ZN7ap_uintILi49EEC1El(%struct.ap_uint* getelementptr inbounds ([18000 x %struct.ap_uint]* @_ZL13training_data, i64 0, i64 820), i64 483759299584)
  call void @_ZN7ap_uintILi49EEC1El(%struct.ap_uint* getelementptr inbounds ([18000 x %struct.ap_uint]* @_ZL13training_data, i64 0, i64 821), i64 488121081344)
  call void @_ZN7ap_uintILi49EEC1El(%struct.ap_uint* getelementptr inbounds ([18000 x %struct.ap_uint]* @_ZL13training_data, i64 0, i64 822), i64 419896430080)
  call void @_ZN7ap_uintILi49EEC1El(%struct.ap_uint* getelementptr inbounds ([18000 x %struct.ap_uint]* @_ZL13training_data, i64 0, i64 823), i64 489194888720)
  call void @_ZN7ap_uintILi49EEC1El(%struct.ap_uint* getelementptr inbounds ([18000 x %struct.ap_uint]* @_ZL13training_data, i64 0, i64 824), i64 420484058624)
  call void @_ZN7ap_uintILi49EEC1El(%struct.ap_uint* getelementptr inbounds ([18000 x %struct.ap_uint]* @_ZL13training_data, i64 0, i64 825), i64 906882747904)
  call void @_ZN7ap_uintILi49EEC1El(%struct.ap_uint* getelementptr inbounds ([18000 x %struct.ap_uint]* @_ZL13training_data, i64 0, i64 826), i64 208881392640)
  call void @_ZN7ap_uintILi49EEC1El(%struct.ap_uint* getelementptr inbounds ([18000 x %struct.ap_uint]* @_ZL13training_data, i64 0, i64 827), i64 417220562432)
  call void @_ZN7ap_uintILi49EEC1El(%struct.ap_uint* getelementptr inbounds ([18000 x %struct.ap_uint]* @_ZL13training_data, i64 0, i64 828), i64 419892104712)
  call void @_ZN7ap_uintILi49EEC1El(%struct.ap_uint* getelementptr inbounds ([18000 x %struct.ap_uint]* @_ZL13training_data, i64 0, i64 829), i64 967479430656)
  call void @_ZN7ap_uintILi49EEC1El(%struct.ap_uint* getelementptr inbounds ([18000 x %struct.ap_uint]* @_ZL13training_data, i64 0, i64 830), i64 209963654144)
  call void @_ZN7ap_uintILi49EEC1El(%struct.ap_uint* getelementptr inbounds ([18000 x %struct.ap_uint]* @_ZL13training_data, i64 0, i64 831), i64 970172894720)
  call void @_ZN7ap_uintILi49EEC1El(%struct.ap_uint* getelementptr inbounds ([18000 x %struct.ap_uint]* @_ZL13training_data, i64 0, i64 832), i64 486988651520)
  call void @_ZN7ap_uintILi49EEC1El(%struct.ap_uint* getelementptr inbounds ([18000 x %struct.ap_uint]* @_ZL13training_data, i64 0, i64 833), i64 489194888704)
  call void @_ZN7ap_uintILi49EEC1Ej(%struct.ap_uint* getelementptr inbounds ([18000 x %struct.ap_uint]* @_ZL13training_data, i64 0, i64 834), i32 -498131968)
  call void @_ZN7ap_uintILi49EEC1El(%struct.ap_uint* getelementptr inbounds ([18000 x %struct.ap_uint]* @_ZL13training_data, i64 0, i64 835), i64 419336658432)
  call void @_ZN7ap_uintILi49EEC1El(%struct.ap_uint* getelementptr inbounds ([18000 x %struct.ap_uint]* @_ZL13training_data, i64 0, i64 836), i64 418328185856)
  call void @_ZN7ap_uintILi49EEC1El(%struct.ap_uint* getelementptr inbounds ([18000 x %struct.ap_uint]* @_ZL13training_data, i64 0, i64 837), i64 420484025856)
  call void @_ZN7ap_uintILi49EEC1El(%struct.ap_uint* getelementptr inbounds ([18000 x %struct.ap_uint]* @_ZL13training_data, i64 0, i64 838), i64 971271605760)
  call void @_ZN7ap_uintILi49EEC1El(%struct.ap_uint* getelementptr inbounds ([18000 x %struct.ap_uint]* @_ZL13training_data, i64 0, i64 839), i64 420416916480)
  call void @_ZN7ap_uintILi49EEC1El(%struct.ap_uint* getelementptr inbounds ([18000 x %struct.ap_uint]* @_ZL13training_data, i64 0, i64 840), i64 976640314880)
  call void @_ZN7ap_uintILi49EEC1El(%struct.ap_uint* getelementptr inbounds ([18000 x %struct.ap_uint]* @_ZL13training_data, i64 0, i64 841), i64 488121146880)
  call void @_ZN7ap_uintILi49EEC1El(%struct.ap_uint* getelementptr inbounds ([18000 x %struct.ap_uint]* @_ZL13training_data, i64 0, i64 842), i64 485940075520)
  call void @_ZN7ap_uintILi49EEC1El(%struct.ap_uint* getelementptr inbounds ([18000 x %struct.ap_uint]* @_ZL13training_data, i64 0, i64 843), i64 208881130496)
  call void @_ZN7ap_uintILi49EEC1El(%struct.ap_uint* getelementptr inbounds ([18000 x %struct.ap_uint]* @_ZL13training_data, i64 0, i64 844), i64 976640056832)
  call void @_ZN7ap_uintILi49EEC1El(%struct.ap_uint* getelementptr inbounds ([18000 x %struct.ap_uint]* @_ZL13training_data, i64 0, i64 845), i64 420475411968)
  call void @_ZN7ap_uintILi49EEC1El(%struct.ap_uint* getelementptr inbounds ([18000 x %struct.ap_uint]* @_ZL13training_data, i64 0, i64 846), i64 832208965128)
  call void @_ZN7ap_uintILi49EEC1El(%struct.ap_uint* getelementptr inbounds ([18000 x %struct.ap_uint]* @_ZL13training_data, i64 0, i64 847), i64 209963392000)
  call void @_ZN7ap_uintILi49EEC1El(%struct.ap_uint* getelementptr inbounds ([18000 x %struct.ap_uint]* @_ZL13training_data, i64 0, i64 848), i64 213243599872)
  call void @_ZN7ap_uintILi49EEC1El(%struct.ap_uint* getelementptr inbounds ([18000 x %struct.ap_uint]* @_ZL13training_data, i64 0, i64 849), i64 489136393728)
  call void @_ZN7ap_uintILi49EEC1El(%struct.ap_uint* getelementptr inbounds ([18000 x %struct.ap_uint]* @_ZL13training_data, i64 0, i64 850), i64 208889912320)
  call void @_ZN7ap_uintILi49EEC1El(%struct.ap_uint* getelementptr inbounds ([18000 x %struct.ap_uint]* @_ZL13training_data, i64 0, i64 851), i64 1035731574272)
  call void @_ZN7ap_uintILi49EEC1El(%struct.ap_uint* getelementptr inbounds ([18000 x %struct.ap_uint]* @_ZL13training_data, i64 0, i64 852), i64 489144654848)
  call void @_ZN7ap_uintILi49EEC1El(%struct.ap_uint* getelementptr inbounds ([18000 x %struct.ap_uint]* @_ZL13training_data, i64 0, i64 853), i64 830040475136)
  call void @_ZN7ap_uintILi49EEC1El(%struct.ap_uint* getelementptr inbounds ([18000 x %struct.ap_uint]* @_ZL13training_data, i64 0, i64 854), i64 213243370496)
  call void @_ZN7ap_uintILi49EEC1El(%struct.ap_uint* getelementptr inbounds ([18000 x %struct.ap_uint]* @_ZL13training_data, i64 0, i64 855), i64 213243632640)
  call void @_ZN7ap_uintILi49EEC1El(%struct.ap_uint* getelementptr inbounds ([18000 x %struct.ap_uint]* @_ZL13training_data, i64 0, i64 856), i64 837053615616)
  call void @_ZN7ap_uintILi49EEC1El(%struct.ap_uint* getelementptr inbounds ([18000 x %struct.ap_uint]* @_ZL13training_data, i64 0, i64 857), i64 1798069309184)
  call void @_ZN7ap_uintILi49EEC1El(%struct.ap_uint* getelementptr inbounds ([18000 x %struct.ap_uint]* @_ZL13training_data, i64 0, i64 858), i64 1045401800192)
  call void @_ZN7ap_uintILi49EEC1El(%struct.ap_uint* getelementptr inbounds ([18000 x %struct.ap_uint]* @_ZL13training_data, i64 0, i64 859), i64 420442250240)
  call void @_ZN7ap_uintILi49EEC1El(%struct.ap_uint* getelementptr inbounds ([18000 x %struct.ap_uint]* @_ZL13training_data, i64 0, i64 860), i64 8166935552)
  call void @_ZN7ap_uintILi49EEC1El(%struct.ap_uint* getelementptr inbounds ([18000 x %struct.ap_uint]* @_ZL13training_data, i64 0, i64 861), i64 283036454400)
  call void @_ZN7ap_uintILi49EEC1El(%struct.ap_uint* getelementptr inbounds ([18000 x %struct.ap_uint]* @_ZL13training_data, i64 0, i64 862), i64 488054300160)
  call void @_ZN7ap_uintILi49EEC1El(%struct.ap_uint* getelementptr inbounds ([18000 x %struct.ap_uint]* @_ZL13training_data, i64 0, i64 863), i64 419880046080)
  call void @_ZN7ap_uintILi49EEC1El(%struct.ap_uint* getelementptr inbounds ([18000 x %struct.ap_uint]* @_ZL13training_data, i64 0, i64 864), i64 488146443264)
  call void @_ZN7ap_uintILi49EEC1El(%struct.ap_uint* getelementptr inbounds ([18000 x %struct.ap_uint]* @_ZL13training_data, i64 0, i64 865), i64 975602224904)
  call void @_ZN7ap_uintILi49EEC1El(%struct.ap_uint* getelementptr inbounds ([18000 x %struct.ap_uint]* @_ZL13training_data, i64 0, i64 866), i64 214250232832)
  call void @_ZN7ap_uintILi49EEC1El(%struct.ap_uint* getelementptr inbounds ([18000 x %struct.ap_uint]* @_ZL13training_data, i64 0, i64 867), i64 417791249920)
  call void @_ZN7ap_uintILi49EEC1El(%struct.ap_uint* getelementptr inbounds ([18000 x %struct.ap_uint]* @_ZL13training_data, i64 0, i64 868), i64 419879521792)
  call void @_ZN7ap_uintILi49EEC1El(%struct.ap_uint* getelementptr inbounds ([18000 x %struct.ap_uint]* @_ZL13training_data, i64 0, i64 869), i64 968016367112)
  call void @_ZN7ap_uintILi49EEC1El(%struct.ap_uint* getelementptr inbounds ([18000 x %struct.ap_uint]* @_ZL13training_data, i64 0, i64 870), i64 420475346432)
  call void @_ZN7ap_uintILi49EEC1El(%struct.ap_uint* getelementptr inbounds ([18000 x %struct.ap_uint]* @_ZL13training_data, i64 0, i64 871), i64 420475604488)
  call void @_ZN7ap_uintILi49EEC1El(%struct.ap_uint* getelementptr inbounds ([18000 x %struct.ap_uint]* @_ZL13training_data, i64 0, i64 872), i64 830040509952)
  call void @_ZN7ap_uintILi49EEC1El(%struct.ap_uint* getelementptr inbounds ([18000 x %struct.ap_uint]* @_ZL13training_data, i64 0, i64 873), i64 420484189184)
  call void @_ZN7ap_uintILi49EEC1El(%struct.ap_uint* getelementptr inbounds ([18000 x %struct.ap_uint]* @_ZL13training_data, i64 0, i64 874), i64 419875327488)
  call void @_ZN7ap_uintILi49EEC1El(%struct.ap_uint* getelementptr inbounds ([18000 x %struct.ap_uint]* @_ZL13training_data, i64 0, i64 875), i64 420416392192)
  call void @_ZN7ap_uintILi49EEC1El(%struct.ap_uint* getelementptr inbounds ([18000 x %struct.ap_uint]* @_ZL13training_data, i64 0, i64 876), i64 429034278400)
  call void @_ZN7ap_uintILi49EEC1El(%struct.ap_uint* getelementptr inbounds ([18000 x %struct.ap_uint]* @_ZL13training_data, i64 0, i64 877), i64 140702452736)
  call void @_ZN7ap_uintILi49EEC1El(%struct.ap_uint* getelementptr inbounds ([18000 x %struct.ap_uint]* @_ZL13training_data, i64 0, i64 878), i64 420475604480)
  call void @_ZN7ap_uintILi49EEC1El(%struct.ap_uint* getelementptr inbounds ([18000 x %struct.ap_uint]* @_ZL13training_data, i64 0, i64 879), i64 969099152896)
  call void @_ZN7ap_uintILi49EEC1El(%struct.ap_uint* getelementptr inbounds ([18000 x %struct.ap_uint]* @_ZL13training_data, i64 0, i64 880), i64 488121081352)
  call void @_ZN7ap_uintILi49EEC1El(%struct.ap_uint* getelementptr inbounds ([18000 x %struct.ap_uint]* @_ZL13training_data, i64 0, i64 881), i64 419875458048)
  call void @_ZN7ap_uintILi49EEC1El(%struct.ap_uint* getelementptr inbounds ([18000 x %struct.ap_uint]* @_ZL13training_data, i64 0, i64 882), i64 488129531392)
  call void @_ZN7ap_uintILi49EEC1El(%struct.ap_uint* getelementptr inbounds ([18000 x %struct.ap_uint]* @_ZL13training_data, i64 0, i64 883), i64 418260553216)
  call void @_ZN7ap_uintILi49EEC1El(%struct.ap_uint* getelementptr inbounds ([18000 x %struct.ap_uint]* @_ZL13training_data, i64 0, i64 884), i64 488121114112)
  call void @_ZN7ap_uintILi49EEC1El(%struct.ap_uint* getelementptr inbounds ([18000 x %struct.ap_uint]* @_ZL13training_data, i64 0, i64 885), i64 976078343944)
  call void @_ZN7ap_uintILi49EEC1El(%struct.ap_uint* getelementptr inbounds ([18000 x %struct.ap_uint]* @_ZL13training_data, i64 0, i64 886), i64 282432146952)
  call void @_ZN7ap_uintILi49EEC1El(%struct.ap_uint* getelementptr inbounds ([18000 x %struct.ap_uint]* @_ZL13training_data, i64 0, i64 887), i64 214250135040)
  call void @_ZN7ap_uintILi49EEC1El(%struct.ap_uint* getelementptr inbounds ([18000 x %struct.ap_uint]* @_ZL13training_data, i64 0, i64 888), i64 419946892800)
  call void @_ZN7ap_uintILi49EEC1El(%struct.ap_uint* getelementptr inbounds ([18000 x %struct.ap_uint]* @_ZL13training_data, i64 0, i64 889), i64 494530038784)
  call void @_ZN7ap_uintILi49EEC1El(%struct.ap_uint* getelementptr inbounds ([18000 x %struct.ap_uint]* @_ZL13training_data, i64 0, i64 890), i64 485940039168)
  call void @_ZN7ap_uintILi49EEC1El(%struct.ap_uint* getelementptr inbounds ([18000 x %struct.ap_uint]* @_ZL13training_data, i64 0, i64 891), i64 415597136896)
  call void @_ZN7ap_uintILi49EEC1El(%struct.ap_uint* getelementptr inbounds ([18000 x %struct.ap_uint]* @_ZL13training_data, i64 0, i64 892), i64 283004931584)
  call void @_ZN7ap_uintILi49EEC1El(%struct.ap_uint* getelementptr inbounds ([18000 x %struct.ap_uint]* @_ZL13training_data, i64 0, i64 893), i64 214316948480)
  call void @_ZN7ap_uintILi49EEC1El(%struct.ap_uint* getelementptr inbounds ([18000 x %struct.ap_uint]* @_ZL13training_data, i64 0, i64 894), i64 419401862656)
  call void @_ZN7ap_uintILi49EEC1El(%struct.ap_uint* getelementptr inbounds ([18000 x %struct.ap_uint]* @_ZL13training_data, i64 0, i64 895), i64 415580360192)
  call void @_ZN7ap_uintILi49EEC1El(%struct.ap_uint* getelementptr inbounds ([18000 x %struct.ap_uint]* @_ZL13training_data, i64 0, i64 896), i64 145530658304)
  call void @_ZN7ap_uintILi49EEC1El(%struct.ap_uint* getelementptr inbounds ([18000 x %struct.ap_uint]* @_ZL13training_data, i64 0, i64 897), i64 488079563776)
  call void @_ZN7ap_uintILi49EEC1El(%struct.ap_uint* getelementptr inbounds ([18000 x %struct.ap_uint]* @_ZL13training_data, i64 0, i64 898), i64 489127779856)
  call void @_ZN7ap_uintILi49EEC1El(%struct.ap_uint* getelementptr inbounds ([18000 x %struct.ap_uint]* @_ZL13training_data, i64 0, i64 899), i64 488053771776)
  call void @_ZN7ap_uintILi49EEC1El(%struct.ap_uint* getelementptr inbounds ([18000 x %struct.ap_uint]* @_ZL13training_data, i64 0, i64 900), i64 419334261760)
  call void @_ZN7ap_uintILi49EEC1El(%struct.ap_uint* getelementptr inbounds ([18000 x %struct.ap_uint]* @_ZL13training_data, i64 0, i64 901), i64 975600127488)
  call void @_ZN7ap_uintILi49EEC1El(%struct.ap_uint* getelementptr inbounds ([18000 x %struct.ap_uint]* @_ZL13training_data, i64 0, i64 902), i64 967479430656)
  call void @_ZN7ap_uintILi49EEC1El(%struct.ap_uint* getelementptr inbounds ([18000 x %struct.ap_uint]* @_ZL13training_data, i64 0, i64 903), i64 488054037504)
  call void @_ZN7ap_uintILi49EEC1El(%struct.ap_uint* getelementptr inbounds ([18000 x %struct.ap_uint]* @_ZL13training_data, i64 0, i64 904), i64 830074292736)
  call void @_ZN7ap_uintILi49EEC1El(%struct.ap_uint* getelementptr inbounds ([18000 x %struct.ap_uint]* @_ZL13training_data, i64 0, i64 905), i64 488129895424)
  call void @_ZN7ap_uintILi49EEC1El(%struct.ap_uint* getelementptr inbounds ([18000 x %struct.ap_uint]* @_ZL13training_data, i64 0, i64 906), i64 489203244032)
  call void @_ZN7ap_uintILi49EEC1El(%struct.ap_uint* getelementptr inbounds ([18000 x %struct.ap_uint]* @_ZL13training_data, i64 0, i64 907), i64 282436373504)
  call void @_ZN7ap_uintILi49EEC1El(%struct.ap_uint* getelementptr inbounds ([18000 x %struct.ap_uint]* @_ZL13training_data, i64 0, i64 908), i64 489136528384)
  call void @_ZN7ap_uintILi49EEC1El(%struct.ap_uint* getelementptr inbounds ([18000 x %struct.ap_uint]* @_ZL13training_data, i64 0, i64 909), i64 487047667200)
  call void @_ZN7ap_uintILi49EEC1El(%struct.ap_uint* getelementptr inbounds ([18000 x %struct.ap_uint]* @_ZL13training_data, i64 0, i64 910), i64 1940323092224)
  call void @_ZN7ap_uintILi49EEC1El(%struct.ap_uint* getelementptr inbounds ([18000 x %struct.ap_uint]* @_ZL13training_data, i64 0, i64 911), i64 969702608384)
  call void @_ZN7ap_uintILi49EEC1El(%struct.ap_uint* getelementptr inbounds ([18000 x %struct.ap_uint]* @_ZL13training_data, i64 0, i64 912), i64 419880013312)
  call void @_ZN7ap_uintILi49EEC1El(%struct.ap_uint* getelementptr inbounds ([18000 x %struct.ap_uint]* @_ZL13training_data, i64 0, i64 913), i64 841382594048)
  call void @_ZN7ap_uintILi49EEC1El(%struct.ap_uint* getelementptr inbounds ([18000 x %struct.ap_uint]* @_ZL13training_data, i64 0, i64 914), i64 420475411968)
  call void @_ZN7ap_uintILi49EEC1El(%struct.ap_uint* getelementptr inbounds ([18000 x %struct.ap_uint]* @_ZL13training_data, i64 0, i64 915), i64 978821357320)
  call void @_ZN7ap_uintILi49EEC1El(%struct.ap_uint* getelementptr inbounds ([18000 x %struct.ap_uint]* @_ZL13training_data, i64 0, i64 916), i64 420475621120)
  call void @_ZN7ap_uintILi49EEC1El(%struct.ap_uint* getelementptr inbounds ([18000 x %struct.ap_uint]* @_ZL13training_data, i64 0, i64 917), i64 214325599744)
  call void @_ZN7ap_uintILi49EEC1El(%struct.ap_uint* getelementptr inbounds ([18000 x %struct.ap_uint]* @_ZL13training_data, i64 0, i64 918), i64 419875327488)
  call void @_ZN7ap_uintILi49EEC1El(%struct.ap_uint* getelementptr inbounds ([18000 x %struct.ap_uint]* @_ZL13training_data, i64 0, i64 919), i64 968016367104)
  call void @_ZN7ap_uintILi49EEC1El(%struct.ap_uint* getelementptr inbounds ([18000 x %struct.ap_uint]* @_ZL13training_data, i64 0, i64 920), i64 977227517696)
  call void @_ZN7ap_uintILi49EEC1El(%struct.ap_uint* getelementptr inbounds ([18000 x %struct.ap_uint]* @_ZL13training_data, i64 0, i64 921), i64 417728367616)
  call void @_ZN7ap_uintILi49EEC1El(%struct.ap_uint* getelementptr inbounds ([18000 x %struct.ap_uint]* @_ZL13training_data, i64 0, i64 922), i64 8158481920)
  call void @_ZN7ap_uintILi49EEC1El(%struct.ap_uint* getelementptr inbounds ([18000 x %struct.ap_uint]* @_ZL13training_data, i64 0, i64 923), i64 420408561152)
  call void @_ZN7ap_uintILi49EEC1El(%struct.ap_uint* getelementptr inbounds ([18000 x %struct.ap_uint]* @_ZL13training_data, i64 0, i64 924), i64 975566573056)
  call void @_ZN7ap_uintILi49EEC1El(%struct.ap_uint* getelementptr inbounds ([18000 x %struct.ap_uint]* @_ZL13training_data, i64 0, i64 925), i64 419334786048)
  call void @_ZN7ap_uintILi49EEC1El(%struct.ap_uint* getelementptr inbounds ([18000 x %struct.ap_uint]* @_ZL13training_data, i64 0, i64 926), i64 420417051648)
  call void @_ZN7ap_uintILi49EEC1El(%struct.ap_uint* getelementptr inbounds ([18000 x %struct.ap_uint]* @_ZL13training_data, i64 0, i64 927), i64 8158938112)
  call void @_ZN7ap_uintILi49EEC1El(%struct.ap_uint* getelementptr inbounds ([18000 x %struct.ap_uint]* @_ZL13training_data, i64 0, i64 928), i64 419879554560)
  call void @_ZN7ap_uintILi49EEC1El(%struct.ap_uint* getelementptr inbounds ([18000 x %struct.ap_uint]* @_ZL13training_data, i64 0, i64 929), i64 143452507136)
  call void @_ZN7ap_uintILi49EEC1El(%struct.ap_uint* getelementptr inbounds ([18000 x %struct.ap_uint]* @_ZL13training_data, i64 0, i64 930), i64 419879521800)
  call void @_ZN7ap_uintILi49EEC1El(%struct.ap_uint* getelementptr inbounds ([18000 x %struct.ap_uint]* @_ZL13training_data, i64 0, i64 931), i64 489128041984)
  call void @_ZN7ap_uintILi49EEC1El(%struct.ap_uint* getelementptr inbounds ([18000 x %struct.ap_uint]* @_ZL13training_data, i64 0, i64 932), i64 832792268544)
  call void @_ZN7ap_uintILi49EEC1El(%struct.ap_uint* getelementptr inbounds ([18000 x %struct.ap_uint]* @_ZL13training_data, i64 0, i64 933), i64 419879521792)
  call void @_ZN7ap_uintILi49EEC1El(%struct.ap_uint* getelementptr inbounds ([18000 x %struct.ap_uint]* @_ZL13training_data, i64 0, i64 934), i64 420416392704)
  call void @_ZN7ap_uintILi49EEC1El(%struct.ap_uint* getelementptr inbounds ([18000 x %struct.ap_uint]* @_ZL13training_data, i64 0, i64 935), i64 416649841152)
  call void @_ZN7ap_uintILi49EEC1El(%struct.ap_uint* getelementptr inbounds ([18000 x %struct.ap_uint]* @_ZL13training_data, i64 0, i64 936), i64 830107586304)
  call void @_ZN7ap_uintILi49EEC1El(%struct.ap_uint* getelementptr inbounds ([18000 x %struct.ap_uint]* @_ZL13training_data, i64 0, i64 937), i64 415601331712)
  call void @_ZN7ap_uintILi49EEC1El(%struct.ap_uint* getelementptr inbounds ([18000 x %struct.ap_uint]* @_ZL13training_data, i64 0, i64 938), i64 1044285792000)
  call void @_ZN7ap_uintILi49EEC1El(%struct.ap_uint* getelementptr inbounds ([18000 x %struct.ap_uint]* @_ZL13training_data, i64 0, i64 939), i64 419875851776)
  call void @_ZN7ap_uintILi49EEC1El(%struct.ap_uint* getelementptr inbounds ([18000 x %struct.ap_uint]* @_ZL13training_data, i64 0, i64 940), i64 282436374016)
  call void @_ZN7ap_uintILi49EEC1El(%struct.ap_uint* getelementptr inbounds ([18000 x %struct.ap_uint]* @_ZL13training_data, i64 0, i64 941), i64 282977439232)
  call void @_ZN7ap_uintILi49EEC1El(%struct.ap_uint* getelementptr inbounds ([18000 x %struct.ap_uint]* @_ZL13training_data, i64 0, i64 942), i64 429032180736)
  call void @_ZN7ap_uintILi49EEC1El(%struct.ap_uint* getelementptr inbounds ([18000 x %struct.ap_uint]* @_ZL13training_data, i64 0, i64 943), i64 489136266240)
  call void @_ZN7ap_uintILi49EEC1El(%struct.ap_uint* getelementptr inbounds ([18000 x %struct.ap_uint]* @_ZL13training_data, i64 0, i64 944), i64 420496084480)
  call void @_ZN7ap_uintILi49EEC1El(%struct.ap_uint* getelementptr inbounds ([18000 x %struct.ap_uint]* @_ZL13training_data, i64 0, i64 945), i64 420475542528)
  call void @_ZN7ap_uintILi49EEC1El(%struct.ap_uint* getelementptr inbounds ([18000 x %struct.ap_uint]* @_ZL13training_data, i64 0, i64 946), i64 419334295040)
  call void @_ZN7ap_uintILi49EEC1El(%struct.ap_uint* getelementptr inbounds ([18000 x %struct.ap_uint]* @_ZL13training_data, i64 0, i64 947), i64 8158809600)
  call void @_ZN7ap_uintILi49EEC1El(%struct.ap_uint* getelementptr inbounds ([18000 x %struct.ap_uint]* @_ZL13training_data, i64 0, i64 948), i64 419401670144)
  call void @_ZN7ap_uintILi49EEC1El(%struct.ap_uint* getelementptr inbounds ([18000 x %struct.ap_uint]* @_ZL13training_data, i64 0, i64 949), i64 141239847936)
  call void @_ZN7ap_uintILi49EEC1El(%struct.ap_uint* getelementptr inbounds ([18000 x %struct.ap_uint]* @_ZL13training_data, i64 0, i64 950), i64 968024755712)
  call void @_ZN7ap_uintILi49EEC1El(%struct.ap_uint* getelementptr inbounds ([18000 x %struct.ap_uint]* @_ZL13training_data, i64 0, i64 951), i64 555699965440)
  call void @_ZN7ap_uintILi49EEC1El(%struct.ap_uint* getelementptr inbounds ([18000 x %struct.ap_uint]* @_ZL13training_data, i64 0, i64 952), i64 8142162944)
  call void @_ZN7ap_uintILi49EEC1El(%struct.ap_uint* getelementptr inbounds ([18000 x %struct.ap_uint]* @_ZL13training_data, i64 0, i64 953), i64 968058576384)
  call void @_ZN7ap_uintILi49EEC1El(%struct.ap_uint* getelementptr inbounds ([18000 x %struct.ap_uint]* @_ZL13training_data, i64 0, i64 954), i64 75737275392)
  call void @_ZN7ap_uintILi49EEC1El(%struct.ap_uint* getelementptr inbounds ([18000 x %struct.ap_uint]* @_ZL13training_data, i64 0, i64 955), i64 141302892544)
  call void @_ZN7ap_uintILi49EEC1El(%struct.ap_uint* getelementptr inbounds ([18000 x %struct.ap_uint]* @_ZL13training_data, i64 0, i64 956), i64 209980431360)
  call void @_ZN7ap_uintILi49EEC1El(%struct.ap_uint* getelementptr inbounds ([18000 x %struct.ap_uint]* @_ZL13training_data, i64 0, i64 957), i64 420416392704)
  call void @_ZN7ap_uintILi49EEC1El(%struct.ap_uint* getelementptr inbounds ([18000 x %struct.ap_uint]* @_ZL13training_data, i64 0, i64 958), i64 417220562432)
  call void @_ZN7ap_uintILi49EEC1El(%struct.ap_uint* getelementptr inbounds ([18000 x %struct.ap_uint]* @_ZL13training_data, i64 0, i64 959), i64 841348648456)
  call void @_ZN7ap_uintILi49EEC1El(%struct.ap_uint* getelementptr inbounds ([18000 x %struct.ap_uint]* @_ZL13training_data, i64 0, i64 960), i64 832691013144)
  call void @_ZN7ap_uintILi49EEC1El(%struct.ap_uint* getelementptr inbounds ([18000 x %struct.ap_uint]* @_ZL13training_data, i64 0, i64 961), i64 417186778624)
  call void @_ZN7ap_uintILi49EEC1El(%struct.ap_uint* getelementptr inbounds ([18000 x %struct.ap_uint]* @_ZL13training_data, i64 0, i64 962), i64 8175259136)
  call void @_ZN7ap_uintILi49EEC1El(%struct.ap_uint* getelementptr inbounds ([18000 x %struct.ap_uint]* @_ZL13training_data, i64 0, i64 963), i64 140719361024)
  call void @_ZN7ap_uintILi49EEC1El(%struct.ap_uint* getelementptr inbounds ([18000 x %struct.ap_uint]* @_ZL13training_data, i64 0, i64 964), i64 968016299520)
  call void @_ZN7ap_uintILi49EEC1El(%struct.ap_uint* getelementptr inbounds ([18000 x %struct.ap_uint]* @_ZL13training_data, i64 0, i64 965), i64 208881130496)
  call void @_ZN7ap_uintILi49EEC1El(%struct.ap_uint* getelementptr inbounds ([18000 x %struct.ap_uint]* @_ZL13training_data, i64 0, i64 966), i64 145538485248)
  call void @_ZN7ap_uintILi49EEC1El(%struct.ap_uint* getelementptr inbounds ([18000 x %struct.ap_uint]* @_ZL13training_data, i64 0, i64 967), i64 419879521792)
  call void @_ZN7ap_uintILi49EEC1El(%struct.ap_uint* getelementptr inbounds ([18000 x %struct.ap_uint]* @_ZL13training_data, i64 0, i64 968), i64 967010192896)
  call void @_ZN7ap_uintILi49EEC1El(%struct.ap_uint* getelementptr inbounds ([18000 x %struct.ap_uint]* @_ZL13training_data, i64 0, i64 969), i64 415576133120)
  call void @_ZN7ap_uintILi49EEC1El(%struct.ap_uint* getelementptr inbounds ([18000 x %struct.ap_uint]* @_ZL13training_data, i64 0, i64 970), i64 970231418624)
  call void @_ZN7ap_uintILi49EEC1El(%struct.ap_uint* getelementptr inbounds ([18000 x %struct.ap_uint]* @_ZL13training_data, i64 0, i64 971), i64 141252564992)
  call void @_ZN7ap_uintILi49EEC1El(%struct.ap_uint* getelementptr inbounds ([18000 x %struct.ap_uint]* @_ZL13training_data, i64 0, i64 972), i64 1038950964752)
  call void @_ZN7ap_uintILi49EEC1El(%struct.ap_uint* getelementptr inbounds ([18000 x %struct.ap_uint]* @_ZL13training_data, i64 0, i64 973), i64 419896298496)
  call void @_ZN7ap_uintILi49EEC1El(%struct.ap_uint* getelementptr inbounds ([18000 x %struct.ap_uint]* @_ZL13training_data, i64 0, i64 974), i64 489136397824)
  call void @_ZN7ap_uintILi49EEC1El(%struct.ap_uint* getelementptr inbounds ([18000 x %struct.ap_uint]* @_ZL13training_data, i64 0, i64 975), i64 2078343663360)
  call void @_ZN7ap_uintILi49EEC1El(%struct.ap_uint* getelementptr inbounds ([18000 x %struct.ap_uint]* @_ZL13training_data, i64 0, i64 976), i64 420408564736)
  call void @_ZN7ap_uintILi49EEC1El(%struct.ap_uint* getelementptr inbounds ([18000 x %struct.ap_uint]* @_ZL13training_data, i64 0, i64 977), i64 418294304256)
  call void @_ZN7ap_uintILi49EEC1El(%struct.ap_uint* getelementptr inbounds ([18000 x %struct.ap_uint]* @_ZL13training_data, i64 0, i64 978), i64 420441857536)
  call void @_ZN7ap_uintILi49EEC1El(%struct.ap_uint* getelementptr inbounds ([18000 x %struct.ap_uint]* @_ZL13training_data, i64 0, i64 979), i64 420500839936)
  call void @_ZN7ap_uintILi49EEC1El(%struct.ap_uint* getelementptr inbounds ([18000 x %struct.ap_uint]* @_ZL13training_data, i64 0, i64 980), i64 208881261568)
  call void @_ZN7ap_uintILi49EEC1El(%struct.ap_uint* getelementptr inbounds ([18000 x %struct.ap_uint]* @_ZL13training_data, i64 0, i64 981), i64 140703108096)
  call void @_ZN7ap_uintILi49EEC1El(%struct.ap_uint* getelementptr inbounds ([18000 x %struct.ap_uint]* @_ZL13training_data, i64 0, i64 982), i64 966943149568)
  call void @_ZN7ap_uintILi49EEC1El(%struct.ap_uint* getelementptr inbounds ([18000 x %struct.ap_uint]* @_ZL13training_data, i64 0, i64 983), i64 417254411776)
  call void @_ZN7ap_uintILi49EEC1El(%struct.ap_uint* getelementptr inbounds ([18000 x %struct.ap_uint]* @_ZL13training_data, i64 0, i64 984), i64 420416916992)
  call void @_ZN7ap_uintILi49EEC1El(%struct.ap_uint* getelementptr inbounds ([18000 x %struct.ap_uint]* @_ZL13training_data, i64 0, i64 985), i64 488056397312)
  call void @_ZN7ap_uintILi49EEC1El(%struct.ap_uint* getelementptr inbounds ([18000 x %struct.ap_uint]* @_ZL13training_data, i64 0, i64 986), i64 144524155904)
  call void @_ZN7ap_uintILi49EEC1El(%struct.ap_uint* getelementptr inbounds ([18000 x %struct.ap_uint]* @_ZL13training_data, i64 0, i64 987), i64 489220414464)
  call void @_ZN7ap_uintILi49EEC1El(%struct.ap_uint* getelementptr inbounds ([18000 x %struct.ap_uint]* @_ZL13training_data, i64 0, i64 988), i64 966978539008)
  call void @_ZN7ap_uintILi49EEC1El(%struct.ap_uint* getelementptr inbounds ([18000 x %struct.ap_uint]* @_ZL13training_data, i64 0, i64 989), i64 420441792000)
  call void @_ZN7ap_uintILi49EEC1El(%struct.ap_uint* getelementptr inbounds ([18000 x %struct.ap_uint]* @_ZL13training_data, i64 0, i64 990), i64 419879685632)
  call void @_ZN7ap_uintILi49EEC1El(%struct.ap_uint* getelementptr inbounds ([18000 x %struct.ap_uint]* @_ZL13training_data, i64 0, i64 991), i64 418328186368)
  call void @_ZN7ap_uintILi49EEC1El(%struct.ap_uint* getelementptr inbounds ([18000 x %struct.ap_uint]* @_ZL13training_data, i64 0, i64 992), i64 488121142784)
  call void @_ZN7ap_uintILi49EEC1El(%struct.ap_uint* getelementptr inbounds ([18000 x %struct.ap_uint]* @_ZL13training_data, i64 0, i64 993), i64 420407971336)
  call void @_ZN7ap_uintILi49EEC1El(%struct.ap_uint* getelementptr inbounds ([18000 x %struct.ap_uint]* @_ZL13training_data, i64 0, i64 994), i64 832208964608)
  call void @_ZN7ap_uintILi49EEC1El(%struct.ap_uint* getelementptr inbounds ([18000 x %struct.ap_uint]* @_ZL13training_data, i64 0, i64 995), i64 416113036288)
  call void @_ZN7ap_uintILi49EEC1El(%struct.ap_uint* getelementptr inbounds ([18000 x %struct.ap_uint]* @_ZL13training_data, i64 0, i64 996), i64 975600144128)
  call void @_ZN7ap_uintILi49EEC1El(%struct.ap_uint* getelementptr inbounds ([18000 x %struct.ap_uint]* @_ZL13training_data, i64 0, i64 997), i64 973955698176)
  call void @_ZN7ap_uintILi49EEC1El(%struct.ap_uint* getelementptr inbounds ([18000 x %struct.ap_uint]* @_ZL13training_data, i64 0, i64 998), i64 282969349120)
  call void @_ZN7ap_uintILi49EEC1El(%struct.ap_uint* getelementptr inbounds ([18000 x %struct.ap_uint]* @_ZL13training_data, i64 0, i64 999), i64 415580359680)
  call void @_ZN7ap_uintILi49EEC1El(%struct.ap_uint* getelementptr inbounds ([18000 x %struct.ap_uint]* @_ZL13training_data, i64 0, i64 1000), i64 209980430336)
  call void @_ZN7ap_uintILi49EEC1El(%struct.ap_uint* getelementptr inbounds ([18000 x %struct.ap_uint]* @_ZL13training_data, i64 0, i64 1001), i64 489136397312)
  call void @_ZN7ap_uintILi49EEC1El(%struct.ap_uint* getelementptr inbounds ([18000 x %struct.ap_uint]* @_ZL13training_data, i64 0, i64 1002), i64 419892235264)
  call void @_ZN7ap_uintILi49EEC1El(%struct.ap_uint* getelementptr inbounds ([18000 x %struct.ap_uint]* @_ZL13training_data, i64 0, i64 1003), i64 283036457984)
  call void @_ZN7ap_uintILi49EEC1El(%struct.ap_uint* getelementptr inbounds ([18000 x %struct.ap_uint]* @_ZL13training_data, i64 0, i64 1004), i64 209955003392)
  call void @_ZN7ap_uintILi49EEC1El(%struct.ap_uint* getelementptr inbounds ([18000 x %struct.ap_uint]* @_ZL13training_data, i64 0, i64 1005), i64 283003290624)
  call void @_ZN7ap_uintILi49EEC1El(%struct.ap_uint* getelementptr inbounds ([18000 x %struct.ap_uint]* @_ZL13training_data, i64 0, i64 1006), i64 832197070336)
  call void @_ZN7ap_uintILi49EEC1El(%struct.ap_uint* getelementptr inbounds ([18000 x %struct.ap_uint]* @_ZL13training_data, i64 0, i64 1007), i64 420475375104)
  call void @_ZN7ap_uintILi49EEC1El(%struct.ap_uint* getelementptr inbounds ([18000 x %struct.ap_uint]* @_ZL13training_data, i64 0, i64 1008), i64 145614282264)
  call void @_ZN7ap_uintILi49EEC1El(%struct.ap_uint* getelementptr inbounds ([18000 x %struct.ap_uint]* @_ZL13training_data, i64 0, i64 1009), i64 830644456960)
  call void @_ZN7ap_uintILi49EEC1El(%struct.ap_uint* getelementptr inbounds ([18000 x %struct.ap_uint]* @_ZL13training_data, i64 0, i64 1010), i64 154153881088)
  call void @_ZN7ap_uintILi49EEC1El(%struct.ap_uint* getelementptr inbounds ([18000 x %struct.ap_uint]* @_ZL13training_data, i64 0, i64 1011), i64 214283787264)
  call void @_ZN7ap_uintILi49EEC1El(%struct.ap_uint* getelementptr inbounds ([18000 x %struct.ap_uint]* @_ZL13training_data, i64 0, i64 1012), i64 420408561152)
  call void @_ZN7ap_uintILi49EEC1El(%struct.ap_uint* getelementptr inbounds ([18000 x %struct.ap_uint]* @_ZL13training_data, i64 0, i64 1013), i64 417220562432)
  call void @_ZN7ap_uintILi49EEC1El(%struct.ap_uint* getelementptr inbounds ([18000 x %struct.ap_uint]* @_ZL13training_data, i64 0, i64 1014), i64 978787798784)
  call void @_ZN7ap_uintILi49EEC1El(%struct.ap_uint* getelementptr inbounds ([18000 x %struct.ap_uint]* @_ZL13training_data, i64 0, i64 1015), i64 419334560768)
  call void @_ZN7ap_uintILi49EEC1El(%struct.ap_uint* getelementptr inbounds ([18000 x %struct.ap_uint]* @_ZL13training_data, i64 0, i64 1016), i64 420475411968)
  call void @_ZN7ap_uintILi49EEC1El(%struct.ap_uint* getelementptr inbounds ([18000 x %struct.ap_uint]* @_ZL13training_data, i64 0, i64 1017), i64 418336280064)
  call void @_ZN7ap_uintILi49EEC1El(%struct.ap_uint* getelementptr inbounds ([18000 x %struct.ap_uint]* @_ZL13training_data, i64 0, i64 1018), i64 970256125440)
  call void @_ZN7ap_uintILi49EEC1El(%struct.ap_uint* getelementptr inbounds ([18000 x %struct.ap_uint]* @_ZL13training_data, i64 0, i64 1019), i64 484833074688)
  call void @_ZN7ap_uintILi49EEC1El(%struct.ap_uint* getelementptr inbounds ([18000 x %struct.ap_uint]* @_ZL13training_data, i64 0, i64 1020), i64 976640315136)
  call void @_ZN7ap_uintILi49EEC1El(%struct.ap_uint* getelementptr inbounds ([18000 x %struct.ap_uint]* @_ZL13training_data, i64 0, i64 1021), i64 488121540096)
  call void @_ZN7ap_uintILi49EEC1El(%struct.ap_uint* getelementptr inbounds ([18000 x %struct.ap_uint]* @_ZL13training_data, i64 0, i64 1022), i64 976640511488)
  call void @_ZN7ap_uintILi49EEC1El(%struct.ap_uint* getelementptr inbounds ([18000 x %struct.ap_uint]* @_ZL13training_data, i64 0, i64 1023), i64 16175776256)
  call void @_ZN7ap_uintILi49EEC1El(%struct.ap_uint* getelementptr inbounds ([18000 x %struct.ap_uint]* @_ZL13training_data, i64 0, i64 1024), i64 485973331456)
  call void @_ZN7ap_uintILi49EEC1El(%struct.ap_uint* getelementptr inbounds ([18000 x %struct.ap_uint]* @_ZL13training_data, i64 0, i64 1025), i64 830048929280)
  call void @_ZN7ap_uintILi49EEC1El(%struct.ap_uint* getelementptr inbounds ([18000 x %struct.ap_uint]* @_ZL13training_data, i64 0, i64 1026), i64 417727843328)
  call void @_ZN7ap_uintILi49EEC1El(%struct.ap_uint* getelementptr inbounds ([18000 x %struct.ap_uint]* @_ZL13training_data, i64 0, i64 1027), i64 419880078848)
  call void @_ZN7ap_uintILi49EEC1El(%struct.ap_uint* getelementptr inbounds ([18000 x %struct.ap_uint]* @_ZL13training_data, i64 0, i64 1028), i64 208897940992)
  call void @_ZN7ap_uintILi49EEC1El(%struct.ap_uint* getelementptr inbounds ([18000 x %struct.ap_uint]* @_ZL13training_data, i64 0, i64 1029), i64 489136167936)
  call void @_ZN7ap_uintILi49EEC1El(%struct.ap_uint* getelementptr inbounds ([18000 x %struct.ap_uint]* @_ZL13training_data, i64 0, i64 1030), i64 488053738496)
  call void @_ZN7ap_uintILi49EEC1El(%struct.ap_uint* getelementptr inbounds ([18000 x %struct.ap_uint]* @_ZL13training_data, i64 0, i64 1031), i64 488053869568)
  call void @_ZN7ap_uintILi49EEC1El(%struct.ap_uint* getelementptr inbounds ([18000 x %struct.ap_uint]* @_ZL13training_data, i64 0, i64 1032), i64 488121244672)
  call void @_ZN7ap_uintILi49EEC1El(%struct.ap_uint* getelementptr inbounds ([18000 x %struct.ap_uint]* @_ZL13training_data, i64 0, i64 1033), i64 283005388288)
  call void @_ZN7ap_uintILi49EEC1El(%struct.ap_uint* getelementptr inbounds ([18000 x %struct.ap_uint]* @_ZL13training_data, i64 0, i64 1034), i64 420416392704)
  call void @_ZN7ap_uintILi49EEC1El(%struct.ap_uint* getelementptr inbounds ([18000 x %struct.ap_uint]* @_ZL13training_data, i64 0, i64 1035), i64 978787540480)
  call void @_ZN7ap_uintILi49EEC1El(%struct.ap_uint* getelementptr inbounds ([18000 x %struct.ap_uint]* @_ZL13training_data, i64 0, i64 1036), i64 484857809920)
  call void @_ZN7ap_uintILi49EEC1El(%struct.ap_uint* getelementptr inbounds ([18000 x %struct.ap_uint]* @_ZL13training_data, i64 0, i64 1037), i64 418261077504)
  call void @_ZN7ap_uintILi49EEC1El(%struct.ap_uint* getelementptr inbounds ([18000 x %struct.ap_uint]* @_ZL13training_data, i64 0, i64 1038), i64 489203539456)
  call void @_ZN7ap_uintILi49EEC1El(%struct.ap_uint* getelementptr inbounds ([18000 x %struct.ap_uint]* @_ZL13training_data, i64 0, i64 1039), i64 420484193792)
  call void @_ZN7ap_uintILi49EEC1El(%struct.ap_uint* getelementptr inbounds ([18000 x %struct.ap_uint]* @_ZL13training_data, i64 0, i64 1040), i64 417732037632)
  call void @_ZN7ap_uintILi49EEC1El(%struct.ap_uint* getelementptr inbounds ([18000 x %struct.ap_uint]* @_ZL13training_data, i64 0, i64 1041), i64 832255593984)
  call void @_ZN7ap_uintILi49EEC1El(%struct.ap_uint* getelementptr inbounds ([18000 x %struct.ap_uint]* @_ZL13training_data, i64 0, i64 1042), i64 841348335360)
  call void @_ZN7ap_uintILi49EEC1El(%struct.ap_uint* getelementptr inbounds ([18000 x %struct.ap_uint]* @_ZL13training_data, i64 0, i64 1043), i64 1528585621000)
  call void @_ZN7ap_uintILi49EEC1El(%struct.ap_uint* getelementptr inbounds ([18000 x %struct.ap_uint]* @_ZL13training_data, i64 0, i64 1044), i64 420408303104)
  call void @_ZN7ap_uintILi49EEC1El(%struct.ap_uint* getelementptr inbounds ([18000 x %struct.ap_uint]* @_ZL13training_data, i64 0, i64 1045), i64 140161387520)
  call void @_ZN7ap_uintILi49EEC1El(%struct.ap_uint* getelementptr inbounds ([18000 x %struct.ap_uint]* @_ZL13training_data, i64 0, i64 1046), i64 970239872512)
  call void @_ZN7ap_uintILi49EEC1El(%struct.ap_uint* getelementptr inbounds ([18000 x %struct.ap_uint]* @_ZL13training_data, i64 0, i64 1047), i64 969635368448)
  call void @_ZN7ap_uintILi49EEC1El(%struct.ap_uint* getelementptr inbounds ([18000 x %struct.ap_uint]* @_ZL13training_data, i64 0, i64 1048), i64 976640052736)
  call void @_ZN7ap_uintILi49EEC1El(%struct.ap_uint* getelementptr inbounds ([18000 x %struct.ap_uint]* @_ZL13training_data, i64 0, i64 1049), i64 966943116288)
  call void @_ZN7ap_uintILi49EEC1El(%struct.ap_uint* getelementptr inbounds ([18000 x %struct.ap_uint]* @_ZL13training_data, i64 0, i64 1050), i64 418294304256)
  call void @_ZN7ap_uintILi49EEC1El(%struct.ap_uint* getelementptr inbounds ([18000 x %struct.ap_uint]* @_ZL13training_data, i64 0, i64 1051), i64 832209094144)
  call void @_ZN7ap_uintILi49EEC1El(%struct.ap_uint* getelementptr inbounds ([18000 x %struct.ap_uint]* @_ZL13training_data, i64 0, i64 1052), i64 420484062720)
  call void @_ZN7ap_uintILi49EEC1El(%struct.ap_uint* getelementptr inbounds ([18000 x %struct.ap_uint]* @_ZL13training_data, i64 0, i64 1053), i64 839201426944)
  call void @_ZN7ap_uintILi49EEC1El(%struct.ap_uint* getelementptr inbounds ([18000 x %struct.ap_uint]* @_ZL13training_data, i64 0, i64 1054), i64 71974848512)
  call void @_ZN7ap_uintILi49EEC1El(%struct.ap_uint* getelementptr inbounds ([18000 x %struct.ap_uint]* @_ZL13training_data, i64 0, i64 1055), i64 420484058880)
  call void @_ZN7ap_uintILi49EEC1El(%struct.ap_uint* getelementptr inbounds ([18000 x %struct.ap_uint]* @_ZL13training_data, i64 0, i64 1056), i64 416138206224)
  call void @_ZN7ap_uintILi49EEC1El(%struct.ap_uint* getelementptr inbounds ([18000 x %struct.ap_uint]* @_ZL13training_data, i64 0, i64 1057), i64 976673869312)
  call void @_ZN7ap_uintILi49EEC1El(%struct.ap_uint* getelementptr inbounds ([18000 x %struct.ap_uint]* @_ZL13training_data, i64 0, i64 1058), i64 145614544384)
  call void @_ZN7ap_uintILi49EEC1El(%struct.ap_uint* getelementptr inbounds ([18000 x %struct.ap_uint]* @_ZL13training_data, i64 0, i64 1059), i64 415580489216)
  call void @_ZN7ap_uintILi49EEC1El(%struct.ap_uint* getelementptr inbounds ([18000 x %struct.ap_uint]* @_ZL13training_data, i64 0, i64 1060), i64 418260487680)
  call void @_ZN7ap_uintILi49EEC1El(%struct.ap_uint* getelementptr inbounds ([18000 x %struct.ap_uint]* @_ZL13training_data, i64 0, i64 1061), i64 969090375184)
  call void @_ZN7ap_uintILi49EEC1El(%struct.ap_uint* getelementptr inbounds ([18000 x %struct.ap_uint]* @_ZL13training_data, i64 0, i64 1062), i64 419875327488)
  call void @_ZN7ap_uintILi49EEC1El(%struct.ap_uint* getelementptr inbounds ([18000 x %struct.ap_uint]* @_ZL13training_data, i64 0, i64 1063), i64 971271605760)
  call void @_ZN7ap_uintILi49EEC1El(%struct.ap_uint* getelementptr inbounds ([18000 x %struct.ap_uint]* @_ZL13training_data, i64 0, i64 1064), i64 209963653120)
  call void @_ZN7ap_uintILi49EEC1El(%struct.ap_uint* getelementptr inbounds ([18000 x %struct.ap_uint]* @_ZL13training_data, i64 0, i64 1065), i64 419879521800)
  call void @_ZN7ap_uintILi49EEC1El(%struct.ap_uint* getelementptr inbounds ([18000 x %struct.ap_uint]* @_ZL13training_data, i64 0, i64 1066), i64 976673345024)
  call void @_ZN7ap_uintILi49EEC1El(%struct.ap_uint* getelementptr inbounds ([18000 x %struct.ap_uint]* @_ZL13training_data, i64 0, i64 1067), i64 208881360384)
  call void @_ZN7ap_uintILi49EEC1El(%struct.ap_uint* getelementptr inbounds ([18000 x %struct.ap_uint]* @_ZL13training_data, i64 0, i64 1068), i64 209955134464)
  call void @_ZN7ap_uintILi49EEC1El(%struct.ap_uint* getelementptr inbounds ([18000 x %struct.ap_uint]* @_ZL13training_data, i64 0, i64 1069), i64 73598180352)
  call void @_ZN7ap_uintILi49EEC1El(%struct.ap_uint* getelementptr inbounds ([18000 x %struct.ap_uint]* @_ZL13training_data, i64 0, i64 1070), i64 283036393216)
  call void @_ZN7ap_uintILi49EEC1El(%struct.ap_uint* getelementptr inbounds ([18000 x %struct.ap_uint]* @_ZL13training_data, i64 0, i64 1071), i64 565975486208)
  call void @_ZN7ap_uintILi49EEC1El(%struct.ap_uint* getelementptr inbounds ([18000 x %struct.ap_uint]* @_ZL13training_data, i64 0, i64 1072), i64 210022112256)
  call void @_ZN7ap_uintILi49EEC1El(%struct.ap_uint* getelementptr inbounds ([18000 x %struct.ap_uint]* @_ZL13training_data, i64 0, i64 1073), i64 420408004096)
  call void @_ZN7ap_uintILi49EEC1El(%struct.ap_uint* getelementptr inbounds ([18000 x %struct.ap_uint]* @_ZL13training_data, i64 0, i64 1074), i64 419871690240)
  call void @_ZN7ap_uintILi49EEC1El(%struct.ap_uint* getelementptr inbounds ([18000 x %struct.ap_uint]* @_ZL13training_data, i64 0, i64 1075), i64 8158551040)
  call void @_ZN7ap_uintILi49EEC1El(%struct.ap_uint* getelementptr inbounds ([18000 x %struct.ap_uint]* @_ZL13training_data, i64 0, i64 1076), i64 488121146368)
  call void @_ZN7ap_uintILi49EEC1El(%struct.ap_uint* getelementptr inbounds ([18000 x %struct.ap_uint]* @_ZL13training_data, i64 0, i64 1077), i64 968016334336)
  call void @_ZN7ap_uintILi49EEC1El(%struct.ap_uint* getelementptr inbounds ([18000 x %struct.ap_uint]* @_ZL13training_data, i64 0, i64 1078), i64 420408565248)
  call void @_ZN7ap_uintILi49EEC1El(%struct.ap_uint* getelementptr inbounds ([18000 x %struct.ap_uint]* @_ZL13training_data, i64 0, i64 1079), i64 489161334272)
  call void @_ZN7ap_uintILi49EEC1El(%struct.ap_uint* getelementptr inbounds ([18000 x %struct.ap_uint]* @_ZL13training_data, i64 0, i64 1080), i64 1044287954432)
  call void @_ZN7ap_uintILi49EEC1El(%struct.ap_uint* getelementptr inbounds ([18000 x %struct.ap_uint]* @_ZL13training_data, i64 0, i64 1081), i64 968050183680)
  call void @_ZN7ap_uintILi49EEC1El(%struct.ap_uint* getelementptr inbounds ([18000 x %struct.ap_uint]* @_ZL13training_data, i64 0, i64 1082), i64 967487852032)
  call void @_ZN7ap_uintILi49EEC1El(%struct.ap_uint* getelementptr inbounds ([18000 x %struct.ap_uint]* @_ZL13training_data, i64 0, i64 1083), i64 209959394304)
  call void @_ZN7ap_uintILi49EEC1El(%struct.ap_uint* getelementptr inbounds ([18000 x %struct.ap_uint]* @_ZL13training_data, i64 0, i64 1084), i64 418261081600)
  call void @_ZN7ap_uintILi49EEC1El(%struct.ap_uint* getelementptr inbounds ([18000 x %struct.ap_uint]* @_ZL13training_data, i64 0, i64 1085), i64 975600127496)
  call void @_ZN7ap_uintILi49EEC1El(%struct.ap_uint* getelementptr inbounds ([18000 x %struct.ap_uint]* @_ZL13training_data, i64 0, i64 1086), i64 420475801088)
  call void @_ZN7ap_uintILi49EEC1El(%struct.ap_uint* getelementptr inbounds ([18000 x %struct.ap_uint]* @_ZL13training_data, i64 0, i64 1087), i64 420412722176)
  call void @_ZN7ap_uintILi49EEC1El(%struct.ap_uint* getelementptr inbounds ([18000 x %struct.ap_uint]* @_ZL13training_data, i64 0, i64 1088), i64 417220566528)
  call void @_ZN7ap_uintILi49EEC1El(%struct.ap_uint* getelementptr inbounds ([18000 x %struct.ap_uint]* @_ZL13training_data, i64 0, i64 1089), i64 830107586048)
  call void @_ZN7ap_uintILi49EEC1El(%struct.ap_uint* getelementptr inbounds ([18000 x %struct.ap_uint]* @_ZL13training_data, i64 0, i64 1090), i64 969090108928)
  call void @_ZN7ap_uintILi49EEC1El(%struct.ap_uint* getelementptr inbounds ([18000 x %struct.ap_uint]* @_ZL13training_data, i64 0, i64 1091), i64 209963654144)
  call void @_ZN7ap_uintILi49EEC1El(%struct.ap_uint* getelementptr inbounds ([18000 x %struct.ap_uint]* @_ZL13training_data, i64 0, i64 1092), i64 419946925568)
  call void @_ZN7ap_uintILi49EEC1El(%struct.ap_uint* getelementptr inbounds ([18000 x %struct.ap_uint]* @_ZL13training_data, i64 0, i64 1093), i64 834369265408)
  call void @_ZN7ap_uintILi49EEC1El(%struct.ap_uint* getelementptr inbounds ([18000 x %struct.ap_uint]* @_ZL13training_data, i64 0, i64 1094), i64 209980333568)
  call void @_ZN7ap_uintILi49EEC1El(%struct.ap_uint* getelementptr inbounds ([18000 x %struct.ap_uint]* @_ZL13training_data, i64 0, i64 1095), i64 417723616768)
  call void @_ZN7ap_uintILi49EEC1El(%struct.ap_uint* getelementptr inbounds ([18000 x %struct.ap_uint]* @_ZL13training_data, i64 0, i64 1096), i64 420475411968)
  call void @_ZN7ap_uintILi49EEC1El(%struct.ap_uint* getelementptr inbounds ([18000 x %struct.ap_uint]* @_ZL13training_data, i64 0, i64 1097), i64 970164375040)
  call void @_ZN7ap_uintILi49EEC1El(%struct.ap_uint* getelementptr inbounds ([18000 x %struct.ap_uint]* @_ZL13training_data, i64 0, i64 1098), i64 213444828672)
  call void @_ZN7ap_uintILi49EEC1El(%struct.ap_uint* getelementptr inbounds ([18000 x %struct.ap_uint]* @_ZL13training_data, i64 0, i64 1099), i64 839203655168)
  call void @_ZN7ap_uintILi49EEC1El(%struct.ap_uint* getelementptr inbounds ([18000 x %struct.ap_uint]* @_ZL13training_data, i64 0, i64 1100), i64 966942625280)
  call void @_ZN7ap_uintILi49EEC1El(%struct.ap_uint* getelementptr inbounds ([18000 x %struct.ap_uint]* @_ZL13training_data, i64 0, i64 1101), i64 488322735616)
  call void @_ZN7ap_uintILi49EEC1El(%struct.ap_uint* getelementptr inbounds ([18000 x %struct.ap_uint]* @_ZL13training_data, i64 0, i64 1102), i64 966976445952)
  call void @_ZN7ap_uintILi49EEC1El(%struct.ap_uint* getelementptr inbounds ([18000 x %struct.ap_uint]* @_ZL13training_data, i64 0, i64 1103), i64 489128168960)
  call void @_ZN7ap_uintILi49EEC1El(%struct.ap_uint* getelementptr inbounds ([18000 x %struct.ap_uint]* @_ZL13training_data, i64 0, i64 1104), i64 209422457856)
  call void @_ZN7ap_uintILi49EEC1El(%struct.ap_uint* getelementptr inbounds ([18000 x %struct.ap_uint]* @_ZL13training_data, i64 0, i64 1105), i64 419334560768)
  call void @_ZN7ap_uintILi49EEC1El(%struct.ap_uint* getelementptr inbounds ([18000 x %struct.ap_uint]* @_ZL13training_data, i64 0, i64 1106), i64 419871165952)
  call void @_ZN7ap_uintILi49EEC1El(%struct.ap_uint* getelementptr inbounds ([18000 x %struct.ap_uint]* @_ZL13training_data, i64 0, i64 1107), i64 282508238336)
  call void @_ZN7ap_uintILi49EEC1El(%struct.ap_uint* getelementptr inbounds ([18000 x %struct.ap_uint]* @_ZL13training_data, i64 0, i64 1108), i64 969635499520)
  call void @_ZN7ap_uintILi49EEC1El(%struct.ap_uint* getelementptr inbounds ([18000 x %struct.ap_uint]* @_ZL13training_data, i64 0, i64 1109), i64 975566310912)
  call void @_ZN7ap_uintILi49EEC1El(%struct.ap_uint* getelementptr inbounds ([18000 x %struct.ap_uint]* @_ZL13training_data, i64 0, i64 1110), i64 420408561152)
  call void @_ZN7ap_uintILi49EEC1El(%struct.ap_uint* getelementptr inbounds ([18000 x %struct.ap_uint]* @_ZL13training_data, i64 0, i64 1111), i64 419875326976)
  call void @_ZN7ap_uintILi49EEC1El(%struct.ap_uint* getelementptr inbounds ([18000 x %struct.ap_uint]* @_ZL13training_data, i64 0, i64 1112), i64 213176393216)
  call void @_ZN7ap_uintILi49EEC1El(%struct.ap_uint* getelementptr inbounds ([18000 x %struct.ap_uint]* @_ZL13training_data, i64 0, i64 1113), i64 420441787912)
  call void @_ZN7ap_uintILi49EEC1El(%struct.ap_uint* getelementptr inbounds ([18000 x %struct.ap_uint]* @_ZL13training_data, i64 0, i64 1114), i64 966942592512)
  call void @_ZN7ap_uintILi49EEC1El(%struct.ap_uint* getelementptr inbounds ([18000 x %struct.ap_uint]* @_ZL13training_data, i64 0, i64 1115), i64 415601331200)
  call void @_ZN7ap_uintILi49EEC1El(%struct.ap_uint* getelementptr inbounds ([18000 x %struct.ap_uint]* @_ZL13training_data, i64 0, i64 1116), i64 420475542528)
  call void @_ZN7ap_uintILi49EEC1El(%struct.ap_uint* getelementptr inbounds ([18000 x %struct.ap_uint]* @_ZL13training_data, i64 0, i64 1117), i64 966942560008)
  call void @_ZN7ap_uintILi49EEC1El(%struct.ap_uint* getelementptr inbounds ([18000 x %struct.ap_uint]* @_ZL13training_data, i64 0, i64 1118), i64 418327895552)
  call void @_ZN7ap_uintILi49EEC1El(%struct.ap_uint* getelementptr inbounds ([18000 x %struct.ap_uint]* @_ZL13training_data, i64 0, i64 1119), i64 416130505728)
  call void @_ZN7ap_uintILi49EEC1El(%struct.ap_uint* getelementptr inbounds ([18000 x %struct.ap_uint]* @_ZL13training_data, i64 0, i64 1120), i64 415597267968)
  call void @_ZN7ap_uintILi49EEC1El(%struct.ap_uint* getelementptr inbounds ([18000 x %struct.ap_uint]* @_ZL13training_data, i64 0, i64 1121), i64 976640052992)
  call void @_ZN7ap_uintILi49EEC1El(%struct.ap_uint* getelementptr inbounds ([18000 x %struct.ap_uint]* @_ZL13training_data, i64 0, i64 1122), i64 975566380544)
  call void @_ZN7ap_uintILi49EEC1El(%struct.ap_uint* getelementptr inbounds ([18000 x %struct.ap_uint]* @_ZL13training_data, i64 0, i64 1123), i64 420441787904)
  call void @_ZN7ap_uintILi49EEC1El(%struct.ap_uint* getelementptr inbounds ([18000 x %struct.ap_uint]* @_ZL13training_data, i64 0, i64 1124), i64 419879521792)
  call void @_ZN7ap_uintILi49EEC1El(%struct.ap_uint* getelementptr inbounds ([18000 x %struct.ap_uint]* @_ZL13training_data, i64 0, i64 1125), i64 419880046080)
  call void @_ZN7ap_uintILi49EEC1El(%struct.ap_uint* getelementptr inbounds ([18000 x %struct.ap_uint]* @_ZL13training_data, i64 0, i64 1126), i64 488121409024)
  call void @_ZN7ap_uintILi49EEC1El(%struct.ap_uint* getelementptr inbounds ([18000 x %struct.ap_uint]* @_ZL13training_data, i64 0, i64 1127), i64 145547435520)
  call void @_ZN7ap_uintILi49EEC1El(%struct.ap_uint* getelementptr inbounds ([18000 x %struct.ap_uint]* @_ZL13training_data, i64 0, i64 1128), i64 419301002752)
  call void @_ZN7ap_uintILi49EEC1El(%struct.ap_uint* getelementptr inbounds ([18000 x %struct.ap_uint]* @_ZL13training_data, i64 0, i64 1129), i64 420475801088)
  call void @_ZN7ap_uintILi49EEC1El(%struct.ap_uint* getelementptr inbounds ([18000 x %struct.ap_uint]* @_ZL13training_data, i64 0, i64 1130), i64 415601462272)
  call void @_ZN7ap_uintILi49EEC1El(%struct.ap_uint* getelementptr inbounds ([18000 x %struct.ap_uint]* @_ZL13training_data, i64 0, i64 1131), i64 1035662630400)
  call void @_ZN7ap_uintILi49EEC1El(%struct.ap_uint* getelementptr inbounds ([18000 x %struct.ap_uint]* @_ZL13training_data, i64 0, i64 1132), i64 419875458048)
  call void @_ZN7ap_uintILi49EEC1El(%struct.ap_uint* getelementptr inbounds ([18000 x %struct.ap_uint]* @_ZL13training_data, i64 0, i64 1133), i64 968016301568)
  call void @_ZN7ap_uintILi49EEC1Ej(%struct.ap_uint* getelementptr inbounds ([18000 x %struct.ap_uint]* @_ZL13training_data, i64 0, i64 1134), i32 -498792448)
  call void @_ZN7ap_uintILi49EEC1El(%struct.ap_uint* getelementptr inbounds ([18000 x %struct.ap_uint]* @_ZL13training_data, i64 0, i64 1135), i64 488121146880)
  call void @_ZN7ap_uintILi49EEC1El(%struct.ap_uint* getelementptr inbounds ([18000 x %struct.ap_uint]* @_ZL13training_data, i64 0, i64 1136), i64 489197248016)
  call void @_ZN7ap_uintILi49EEC1El(%struct.ap_uint* getelementptr inbounds ([18000 x %struct.ap_uint]* @_ZL13training_data, i64 0, i64 1137), i64 209980427264)
  call void @_ZN7ap_uintILi49EEC1El(%struct.ap_uint* getelementptr inbounds ([18000 x %struct.ap_uint]* @_ZL13training_data, i64 0, i64 1138), i64 968083737600)
  call void @_ZN7ap_uintILi49EEC1El(%struct.ap_uint* getelementptr inbounds ([18000 x %struct.ap_uint]* @_ZL13training_data, i64 0, i64 1139), i64 141243784704)
  call void @_ZN7ap_uintILi49EEC1El(%struct.ap_uint* getelementptr inbounds ([18000 x %struct.ap_uint]* @_ZL13training_data, i64 0, i64 1140), i64 420483800064)
  call void @_ZN7ap_uintILi49EEC1El(%struct.ap_uint* getelementptr inbounds ([18000 x %struct.ap_uint]* @_ZL13training_data, i64 0, i64 1141), i64 484858338304)
  call void @_ZN7ap_uintILi49EEC1El(%struct.ap_uint* getelementptr inbounds ([18000 x %struct.ap_uint]* @_ZL13training_data, i64 0, i64 1142), i64 2076185169664)
  call void @_ZN7ap_uintILi49EEC1El(%struct.ap_uint* getelementptr inbounds ([18000 x %struct.ap_uint]* @_ZL13training_data, i64 0, i64 1143), i64 978821549568)
  call void @_ZN7ap_uintILi49EEC1El(%struct.ap_uint* getelementptr inbounds ([18000 x %struct.ap_uint]* @_ZL13training_data, i64 0, i64 1144), i64 417727841792)
  call void @_ZN7ap_uintILi49EEC1El(%struct.ap_uint* getelementptr inbounds ([18000 x %struct.ap_uint]* @_ZL13training_data, i64 0, i64 1145), i64 420475378688)
  call void @_ZN7ap_uintILi49EEC1El(%struct.ap_uint* getelementptr inbounds ([18000 x %struct.ap_uint]* @_ZL13training_data, i64 0, i64 1146), i64 282436373504)
  call void @_ZN7ap_uintILi49EEC1El(%struct.ap_uint* getelementptr inbounds ([18000 x %struct.ap_uint]* @_ZL13training_data, i64 0, i64 1147), i64 488121081344)
  call void @_ZN7ap_uintILi49EEC1El(%struct.ap_uint* getelementptr inbounds ([18000 x %struct.ap_uint]* @_ZL13training_data, i64 0, i64 1148), i64 420475800576)
  call void @_ZN7ap_uintILi49EEC1El(%struct.ap_uint* getelementptr inbounds ([18000 x %struct.ap_uint]* @_ZL13training_data, i64 0, i64 1149), i64 420408658944)
  call void @_ZN7ap_uintILi49EEC1El(%struct.ap_uint* getelementptr inbounds ([18000 x %struct.ap_uint]* @_ZL13training_data, i64 0, i64 1150), i64 967010192904)
  call void @_ZN7ap_uintILi49EEC1El(%struct.ap_uint* getelementptr inbounds ([18000 x %struct.ap_uint]* @_ZL13training_data, i64 0, i64 1151), i64 488121146880)
  call void @_ZN7ap_uintILi49EEC1El(%struct.ap_uint* getelementptr inbounds ([18000 x %struct.ap_uint]* @_ZL13training_data, i64 0, i64 1152), i64 762999311872)
  call void @_ZN7ap_uintILi49EEC1El(%struct.ap_uint* getelementptr inbounds ([18000 x %struct.ap_uint]* @_ZL13training_data, i64 0, i64 1153), i64 419334753792)
  call void @_ZN7ap_uintILi49EEC1El(%struct.ap_uint* getelementptr inbounds ([18000 x %struct.ap_uint]* @_ZL13training_data, i64 0, i64 1154), i64 145563852288)
  call void @_ZN7ap_uintILi49EEC1El(%struct.ap_uint* getelementptr inbounds ([18000 x %struct.ap_uint]* @_ZL13training_data, i64 0, i64 1155), i64 419875327496)
  call void @_ZN7ap_uintILi49EEC1El(%struct.ap_uint* getelementptr inbounds ([18000 x %struct.ap_uint]* @_ZL13training_data, i64 0, i64 1156), i64 830040540672)
  call void @_ZN7ap_uintILi49EEC1El(%struct.ap_uint* getelementptr inbounds ([18000 x %struct.ap_uint]* @_ZL13training_data, i64 0, i64 1157), i64 208906688512)
  call void @_ZN7ap_uintILi49EEC1El(%struct.ap_uint* getelementptr inbounds ([18000 x %struct.ap_uint]* @_ZL13training_data, i64 0, i64 1158), i64 291072675584)
  call void @_ZN7ap_uintILi49EEC1El(%struct.ap_uint* getelementptr inbounds ([18000 x %struct.ap_uint]* @_ZL13training_data, i64 0, i64 1159), i64 489194823424)
  call void @_ZN7ap_uintILi49EEC1El(%struct.ap_uint* getelementptr inbounds ([18000 x %struct.ap_uint]* @_ZL13training_data, i64 0, i64 1160), i64 417187335680)
  call void @_ZN7ap_uintILi49EEC1El(%struct.ap_uint* getelementptr inbounds ([18000 x %struct.ap_uint]* @_ZL13training_data, i64 0, i64 1161), i64 488121146896)
  call void @_ZN7ap_uintILi49EEC1El(%struct.ap_uint* getelementptr inbounds ([18000 x %struct.ap_uint]* @_ZL13training_data, i64 0, i64 1162), i64 142308871168)
  call void @_ZN7ap_uintILi49EEC1El(%struct.ap_uint* getelementptr inbounds ([18000 x %struct.ap_uint]* @_ZL13training_data, i64 0, i64 1163), i64 489203277312)
  call void @_ZN7ap_uintILi49EEC1El(%struct.ap_uint* getelementptr inbounds ([18000 x %struct.ap_uint]* @_ZL13training_data, i64 0, i64 1164), i64 210021981184)
  call void @_ZN7ap_uintILi49EEC1El(%struct.ap_uint* getelementptr inbounds ([18000 x %struct.ap_uint]* @_ZL13training_data, i64 0, i64 1165), i64 420450208768)
  call void @_ZN7ap_uintILi49EEC1El(%struct.ap_uint* getelementptr inbounds ([18000 x %struct.ap_uint]* @_ZL13training_data, i64 0, i64 1166), i64 489136528384)
  call void @_ZN7ap_uintILi49EEC1El(%struct.ap_uint* getelementptr inbounds ([18000 x %struct.ap_uint]* @_ZL13training_data, i64 0, i64 1167), i64 976640118272)
  call void @_ZN7ap_uintILi49EEC1El(%struct.ap_uint* getelementptr inbounds ([18000 x %struct.ap_uint]* @_ZL13training_data, i64 0, i64 1168), i64 417723616256)
  call void @_ZN7ap_uintILi49EEC1El(%struct.ap_uint* getelementptr inbounds ([18000 x %struct.ap_uint]* @_ZL13training_data, i64 0, i64 1169), i64 969635368448)
  call void @_ZN7ap_uintILi49EEC1El(%struct.ap_uint* getelementptr inbounds ([18000 x %struct.ap_uint]* @_ZL13training_data, i64 0, i64 1170), i64 417253854720)
  call void @_ZN7ap_uintILi49EEC1El(%struct.ap_uint* getelementptr inbounds ([18000 x %struct.ap_uint]* @_ZL13training_data, i64 0, i64 1171), i64 209955003392)
  call void @_ZN7ap_uintILi49EEC1El(%struct.ap_uint* getelementptr inbounds ([18000 x %struct.ap_uint]* @_ZL13training_data, i64 0, i64 1172), i64 420475674112)
  call void @_ZN7ap_uintILi49EEC1El(%struct.ap_uint* getelementptr inbounds ([18000 x %struct.ap_uint]* @_ZL13training_data, i64 0, i64 1173), i64 145597504512)
  call void @_ZN7ap_uintILi49EEC1El(%struct.ap_uint* getelementptr inbounds ([18000 x %struct.ap_uint]* @_ZL13training_data, i64 0, i64 1174), i64 417187008008)
  call void @_ZN7ap_uintILi49EEC1El(%struct.ap_uint* getelementptr inbounds ([18000 x %struct.ap_uint]* @_ZL13training_data, i64 0, i64 1175), i64 488137890816)
  call void @_ZN7ap_uintILi49EEC1El(%struct.ap_uint* getelementptr inbounds ([18000 x %struct.ap_uint]* @_ZL13training_data, i64 0, i64 1176), i64 420475411968)
  call void @_ZN7ap_uintILi49EEC1El(%struct.ap_uint* getelementptr inbounds ([18000 x %struct.ap_uint]* @_ZL13training_data, i64 0, i64 1177), i64 420416392704)
  call void @_ZN7ap_uintILi49EEC1El(%struct.ap_uint* getelementptr inbounds ([18000 x %struct.ap_uint]* @_ZL13training_data, i64 0, i64 1178), i64 1044286050056)
  call void @_ZN7ap_uintILi49EEC1El(%struct.ap_uint* getelementptr inbounds ([18000 x %struct.ap_uint]* @_ZL13training_data, i64 0, i64 1179), i64 141234806288)
  call void @_ZN7ap_uintILi49EEC1El(%struct.ap_uint* getelementptr inbounds ([18000 x %struct.ap_uint]* @_ZL13training_data, i64 0, i64 1180), i64 420475674112)
  call void @_ZN7ap_uintILi49EEC1El(%struct.ap_uint* getelementptr inbounds ([18000 x %struct.ap_uint]* @_ZL13training_data, i64 0, i64 1181), i64 419875982336)
  call void @_ZN7ap_uintILi49EEC1El(%struct.ap_uint* getelementptr inbounds ([18000 x %struct.ap_uint]* @_ZL13training_data, i64 0, i64 1182), i64 419338456064)
  call void @_ZN7ap_uintILi49EEC1El(%struct.ap_uint* getelementptr inbounds ([18000 x %struct.ap_uint]* @_ZL13training_data, i64 0, i64 1183), i64 420416392704)
  call void @_ZN7ap_uintILi49EEC1El(%struct.ap_uint* getelementptr inbounds ([18000 x %struct.ap_uint]* @_ZL13training_data, i64 0, i64 1184), i64 419334819328)
  call void @_ZN7ap_uintILi49EEC1El(%struct.ap_uint* getelementptr inbounds ([18000 x %struct.ap_uint]* @_ZL13training_data, i64 0, i64 1185), i64 417723649024)
  call void @_ZN7ap_uintILi49EEC1El(%struct.ap_uint* getelementptr inbounds ([18000 x %struct.ap_uint]* @_ZL13training_data, i64 0, i64 1186), i64 966942559744)
  call void @_ZN7ap_uintILi49EEC1El(%struct.ap_uint* getelementptr inbounds ([18000 x %struct.ap_uint]* @_ZL13training_data, i64 0, i64 1187), i64 2074004459276)
  call void @_ZN7ap_uintILi49EEC1El(%struct.ap_uint* getelementptr inbounds ([18000 x %struct.ap_uint]* @_ZL13training_data, i64 0, i64 1188), i64 827880443392)
  call void @_ZN7ap_uintILi49EEC1El(%struct.ap_uint* getelementptr inbounds ([18000 x %struct.ap_uint]* @_ZL13training_data, i64 0, i64 1189), i64 420408561152)
  call void @_ZN7ap_uintILi49EEC1El(%struct.ap_uint* getelementptr inbounds ([18000 x %struct.ap_uint]* @_ZL13training_data, i64 0, i64 1190), i64 214249970688)
  call void @_ZN7ap_uintILi49EEC1El(%struct.ap_uint* getelementptr inbounds ([18000 x %struct.ap_uint]* @_ZL13training_data, i64 0, i64 1191), i64 145597435392)
  call void @_ZN7ap_uintILi49EEC1El(%struct.ap_uint* getelementptr inbounds ([18000 x %struct.ap_uint]* @_ZL13training_data, i64 0, i64 1192), i64 971816603392)
  call void @_ZN7ap_uintILi49EEC1El(%struct.ap_uint* getelementptr inbounds ([18000 x %struct.ap_uint]* @_ZL13training_data, i64 0, i64 1193), i64 417187335168)
  call void @_ZN7ap_uintILi49EEC1El(%struct.ap_uint* getelementptr inbounds ([18000 x %struct.ap_uint]* @_ZL13training_data, i64 0, i64 1194), i64 696393436928)
  call void @_ZN7ap_uintILi49EEC1El(%struct.ap_uint* getelementptr inbounds ([18000 x %struct.ap_uint]* @_ZL13training_data, i64 0, i64 1195), i64 839201099264)
  call void @_ZN7ap_uintILi49EEC1El(%struct.ap_uint* getelementptr inbounds ([18000 x %struct.ap_uint]* @_ZL13training_data, i64 0, i64 1196), i64 970231418624)
  call void @_ZN7ap_uintILi49EEC1El(%struct.ap_uint* getelementptr inbounds ([18000 x %struct.ap_uint]* @_ZL13training_data, i64 0, i64 1197), i64 970239872512)
  call void @_ZN7ap_uintILi49EEC1El(%struct.ap_uint* getelementptr inbounds ([18000 x %struct.ap_uint]* @_ZL13training_data, i64 0, i64 1198), i64 830107586304)
  call void @_ZN7ap_uintILi49EEC1El(%struct.ap_uint* getelementptr inbounds ([18000 x %struct.ap_uint]* @_ZL13training_data, i64 0, i64 1199), i64 840812103168)
  call void @_ZN7ap_uintILi49EEC1El(%struct.ap_uint* getelementptr inbounds ([18000 x %struct.ap_uint]* @_ZL13training_data, i64 0, i64 1200), i64 970239872512)
  call void @_ZN7ap_uintILi49EEC1El(%struct.ap_uint* getelementptr inbounds ([18000 x %struct.ap_uint]* @_ZL13training_data, i64 0, i64 1201), i64 967513251328)
  call void @_ZN7ap_uintILi49EEC1El(%struct.ap_uint* getelementptr inbounds ([18000 x %struct.ap_uint]* @_ZL13training_data, i64 0, i64 1202), i64 140702583808)
  call void @_ZN7ap_uintILi49EEC1El(%struct.ap_uint* getelementptr inbounds ([18000 x %struct.ap_uint]* @_ZL13training_data, i64 0, i64 1203), i64 417732561920)
  call void @_ZN7ap_uintILi49EEC1El(%struct.ap_uint* getelementptr inbounds ([18000 x %struct.ap_uint]* @_ZL13training_data, i64 0, i64 1204), i64 419342781440)
  call void @_ZN7ap_uintILi49EEC1El(%struct.ap_uint* getelementptr inbounds ([18000 x %struct.ap_uint]* @_ZL13training_data, i64 0, i64 1205), i64 420475604480)
  call void @_ZN7ap_uintILi49EEC1El(%struct.ap_uint* getelementptr inbounds ([18000 x %struct.ap_uint]* @_ZL13training_data, i64 0, i64 1206), i64 417220042240)
  call void @_ZN7ap_uintILi49EEC1Ei(%struct.ap_uint* getelementptr inbounds ([18000 x %struct.ap_uint]* @_ZL13training_data, i64 0, i64 1207), i32 1636177920)
  call void @_ZN7ap_uintILi49EEC1El(%struct.ap_uint* getelementptr inbounds ([18000 x %struct.ap_uint]* @_ZL13training_data, i64 0, i64 1208), i64 209955167744)
  call void @_ZN7ap_uintILi49EEC1El(%struct.ap_uint* getelementptr inbounds ([18000 x %struct.ap_uint]* @_ZL13training_data, i64 0, i64 1209), i64 484836842496)
  call void @_ZN7ap_uintILi49EEC1El(%struct.ap_uint* getelementptr inbounds ([18000 x %struct.ap_uint]* @_ZL13training_data, i64 0, i64 1210), i64 283000737280)
  call void @_ZN7ap_uintILi49EEC1El(%struct.ap_uint* getelementptr inbounds ([18000 x %struct.ap_uint]* @_ZL13training_data, i64 0, i64 1211), i64 415580359680)
  call void @_ZN7ap_uintILi49EEC1El(%struct.ap_uint* getelementptr inbounds ([18000 x %struct.ap_uint]* @_ZL13training_data, i64 0, i64 1212), i64 830577413632)
  call void @_ZN7ap_uintILi49EEC1El(%struct.ap_uint* getelementptr inbounds ([18000 x %struct.ap_uint]* @_ZL13training_data, i64 0, i64 1213), i64 970231614976)
  call void @_ZN7ap_uintILi49EEC1El(%struct.ap_uint* getelementptr inbounds ([18000 x %struct.ap_uint]* @_ZL13training_data, i64 0, i64 1214), i64 420475805184)
  call void @_ZN7ap_uintILi49EEC1El(%struct.ap_uint* getelementptr inbounds ([18000 x %struct.ap_uint]* @_ZL13training_data, i64 0, i64 1215), i64 420477771264)
  call void @_ZN7ap_uintILi49EEC1El(%struct.ap_uint* getelementptr inbounds ([18000 x %struct.ap_uint]* @_ZL13training_data, i64 0, i64 1216), i64 839201361664)
  call void @_ZN7ap_uintILi49EEC1El(%struct.ap_uint* getelementptr inbounds ([18000 x %struct.ap_uint]* @_ZL13training_data, i64 0, i64 1217), i64 419879521792)
  call void @_ZN7ap_uintILi49EEC1El(%struct.ap_uint* getelementptr inbounds ([18000 x %struct.ap_uint]* @_ZL13training_data, i64 0, i64 1218), i64 420475346440)
  call void @_ZN7ap_uintILi49EEC1El(%struct.ap_uint* getelementptr inbounds ([18000 x %struct.ap_uint]* @_ZL13training_data, i64 0, i64 1219), i64 420483632640)
  call void @_ZN7ap_uintILi49EEC1El(%struct.ap_uint* getelementptr inbounds ([18000 x %struct.ap_uint]* @_ZL13training_data, i64 0, i64 1220), i64 968084000256)
  call void @_ZN7ap_uintILi49EEC1El(%struct.ap_uint* getelementptr inbounds ([18000 x %struct.ap_uint]* @_ZL13training_data, i64 0, i64 1221), i64 415580360192)
  call void @_ZN7ap_uintILi49EEC1El(%struct.ap_uint* getelementptr inbounds ([18000 x %struct.ap_uint]* @_ZL13training_data, i64 0, i64 1222), i64 415563451392)
  call void @_ZN7ap_uintILi49EEC1El(%struct.ap_uint* getelementptr inbounds ([18000 x %struct.ap_uint]* @_ZL13training_data, i64 0, i64 1223), i64 419896299008)
  call void @_ZN7ap_uintILi49EEC1El(%struct.ap_uint* getelementptr inbounds ([18000 x %struct.ap_uint]* @_ZL13training_data, i64 0, i64 1224), i64 419947154944)
  call void @_ZN7ap_uintILi49EEC1El(%struct.ap_uint* getelementptr inbounds ([18000 x %struct.ap_uint]* @_ZL13training_data, i64 0, i64 1225), i64 968024720896)
  call void @_ZN7ap_uintILi49EEC1El(%struct.ap_uint* getelementptr inbounds ([18000 x %struct.ap_uint]* @_ZL13training_data, i64 0, i64 1226), i64 420475411968)
  call void @_ZN7ap_uintILi49EEC1El(%struct.ap_uint* getelementptr inbounds ([18000 x %struct.ap_uint]* @_ZL13training_data, i64 0, i64 1227), i64 420492451328)
  call void @_ZN7ap_uintILi49EEC1El(%struct.ap_uint* getelementptr inbounds ([18000 x %struct.ap_uint]* @_ZL13training_data, i64 0, i64 1228), i64 971304635904)
  call void @_ZN7ap_uintILi49EEC1El(%struct.ap_uint* getelementptr inbounds ([18000 x %struct.ap_uint]* @_ZL13training_data, i64 0, i64 1229), i64 417723616768)
  call void @_ZN7ap_uintILi49EEC1El(%struct.ap_uint* getelementptr inbounds ([18000 x %struct.ap_uint]* @_ZL13training_data, i64 0, i64 1230), i64 420450606080)
  call void @_ZN7ap_uintILi49EEC1El(%struct.ap_uint* getelementptr inbounds ([18000 x %struct.ap_uint]* @_ZL13training_data, i64 0, i64 1231), i64 485940108800)
  call void @_ZN7ap_uintILi49EEC1El(%struct.ap_uint* getelementptr inbounds ([18000 x %struct.ap_uint]* @_ZL13training_data, i64 0, i64 1232), i64 485915171840)
  call void @_ZN7ap_uintILi49EEC1El(%struct.ap_uint* getelementptr inbounds ([18000 x %struct.ap_uint]* @_ZL13training_data, i64 0, i64 1233), i64 420417047552)
  call void @_ZN7ap_uintILi49EEC1El(%struct.ap_uint* getelementptr inbounds ([18000 x %struct.ap_uint]* @_ZL13training_data, i64 0, i64 1234), i64 214325468160)
  call void @_ZN7ap_uintILi49EEC1El(%struct.ap_uint* getelementptr inbounds ([18000 x %struct.ap_uint]* @_ZL13training_data, i64 0, i64 1235), i64 830040475136)
  call void @_ZN7ap_uintILi49EEC1El(%struct.ap_uint* getelementptr inbounds ([18000 x %struct.ap_uint]* @_ZL13training_data, i64 0, i64 1236), i64 978787606016)
  call void @_ZN7ap_uintILi49EEC1El(%struct.ap_uint* getelementptr inbounds ([18000 x %struct.ap_uint]* @_ZL13training_data, i64 0, i64 1237), i64 18082421087232)
  call void @_ZN7ap_uintILi49EEC1El(%struct.ap_uint* getelementptr inbounds ([18000 x %struct.ap_uint]* @_ZL13training_data, i64 0, i64 1238), i64 487013785096)
  call void @_ZN7ap_uintILi49EEC1El(%struct.ap_uint* getelementptr inbounds ([18000 x %struct.ap_uint]* @_ZL13training_data, i64 0, i64 1239), i64 72537283584)
  call void @_ZN7ap_uintILi49EEC1El(%struct.ap_uint* getelementptr inbounds ([18000 x %struct.ap_uint]* @_ZL13training_data, i64 0, i64 1240), i64 420416392704)
  call void @_ZN7ap_uintILi49EEC1El(%struct.ap_uint* getelementptr inbounds ([18000 x %struct.ap_uint]* @_ZL13training_data, i64 0, i64 1241), i64 1035731508992)
  call void @_ZN7ap_uintILi49EEC1El(%struct.ap_uint* getelementptr inbounds ([18000 x %struct.ap_uint]* @_ZL13training_data, i64 0, i64 1242), i64 839201426944)
  call void @_ZN7ap_uintILi49EEC1El(%struct.ap_uint* getelementptr inbounds ([18000 x %struct.ap_uint]* @_ZL13training_data, i64 0, i64 1243), i64 417187302400)
  call void @_ZN7ap_uintILi49EEC1El(%struct.ap_uint* getelementptr inbounds ([18000 x %struct.ap_uint]* @_ZL13training_data, i64 0, i64 1244), i64 213243599872)
  call void @_ZN7ap_uintILi49EEC1El(%struct.ap_uint* getelementptr inbounds ([18000 x %struct.ap_uint]* @_ZL13training_data, i64 0, i64 1245), i64 418328186368)
  call void @_ZN7ap_uintILi49EEC1El(%struct.ap_uint* getelementptr inbounds ([18000 x %struct.ap_uint]* @_ZL13training_data, i64 0, i64 1246), i64 280855613184)
  call void @_ZN7ap_uintILi49EEC1El(%struct.ap_uint* getelementptr inbounds ([18000 x %struct.ap_uint]* @_ZL13training_data, i64 0, i64 1247), i64 419891971072)
  call void @_ZN7ap_uintILi49EEC1El(%struct.ap_uint* getelementptr inbounds ([18000 x %struct.ap_uint]* @_ZL13training_data, i64 0, i64 1248), i64 483759299584)
  call void @_ZN7ap_uintILi49EEC1El(%struct.ap_uint* getelementptr inbounds ([18000 x %struct.ap_uint]* @_ZL13training_data, i64 0, i64 1249), i64 141252467712)
  call void @_ZN7ap_uintILi49EEC1El(%struct.ap_uint* getelementptr inbounds ([18000 x %struct.ap_uint]* @_ZL13training_data, i64 0, i64 1250), i64 140170042368)
  call void @_ZN7ap_uintILi49EEC1El(%struct.ap_uint* getelementptr inbounds ([18000 x %struct.ap_uint]* @_ZL13training_data, i64 0, i64 1251), i64 967012290312)
  call void @_ZN7ap_uintILi49EEC1El(%struct.ap_uint* getelementptr inbounds ([18000 x %struct.ap_uint]* @_ZL13training_data, i64 0, i64 1252), i64 209980430336)
  call void @_ZN7ap_uintILi49EEC1El(%struct.ap_uint* getelementptr inbounds ([18000 x %struct.ap_uint]* @_ZL13training_data, i64 0, i64 1253), i64 420408528384)
  call void @_ZN7ap_uintILi49EEC1El(%struct.ap_uint* getelementptr inbounds ([18000 x %struct.ap_uint]* @_ZL13training_data, i64 0, i64 1254), i64 208898199040)
  call void @_ZN7ap_uintILi49EEC1El(%struct.ap_uint* getelementptr inbounds ([18000 x %struct.ap_uint]* @_ZL13training_data, i64 0, i64 1255), i64 976640053000)
  call void @_ZN7ap_uintILi49EEC1El(%struct.ap_uint* getelementptr inbounds ([18000 x %struct.ap_uint]* @_ZL13training_data, i64 0, i64 1256), i64 415584685056)
  call void @_ZN7ap_uintILi49EEC1El(%struct.ap_uint* getelementptr inbounds ([18000 x %struct.ap_uint]* @_ZL13training_data, i64 0, i64 1257), i64 420475604480)
  call void @_ZN7ap_uintILi49EEC1El(%struct.ap_uint* getelementptr inbounds ([18000 x %struct.ap_uint]* @_ZL13training_data, i64 0, i64 1258), i64 832794562304)
  call void @_ZN7ap_uintILi49EEC1El(%struct.ap_uint* getelementptr inbounds ([18000 x %struct.ap_uint]* @_ZL13training_data, i64 0, i64 1259), i64 485973659136)
  call void @_ZN7ap_uintILi49EEC1El(%struct.ap_uint* getelementptr inbounds ([18000 x %struct.ap_uint]* @_ZL13training_data, i64 0, i64 1260), i64 426884239104)
  call void @_ZN7ap_uintILi49EEC1El(%struct.ap_uint* getelementptr inbounds ([18000 x %struct.ap_uint]* @_ZL13training_data, i64 0, i64 1261), i64 419875327488)
  call void @_ZN7ap_uintILi49EEC1El(%struct.ap_uint* getelementptr inbounds ([18000 x %struct.ap_uint]* @_ZL13training_data, i64 0, i64 1262), i64 208889252864)
  call void @_ZN7ap_uintILi49EEC1El(%struct.ap_uint* getelementptr inbounds ([18000 x %struct.ap_uint]* @_ZL13training_data, i64 0, i64 1263), i64 489153306112)
  call void @_ZN7ap_uintILi49EEC1El(%struct.ap_uint* getelementptr inbounds ([18000 x %struct.ap_uint]* @_ZL13training_data, i64 0, i64 1264), i64 208881388544)
  call void @_ZN7ap_uintILi49EEC1El(%struct.ap_uint* getelementptr inbounds ([18000 x %struct.ap_uint]* @_ZL13training_data, i64 0, i64 1265), i64 419875326976)
  call void @_ZN7ap_uintILi49EEC1El(%struct.ap_uint* getelementptr inbounds ([18000 x %struct.ap_uint]* @_ZL13training_data, i64 0, i64 1266), i64 141239454720)
  call void @_ZN7ap_uintILi49EEC1El(%struct.ap_uint* getelementptr inbounds ([18000 x %struct.ap_uint]* @_ZL13training_data, i64 0, i64 1267), i64 488121146880)
  call void @_ZN7ap_uintILi49EEC1El(%struct.ap_uint* getelementptr inbounds ([18000 x %struct.ap_uint]* @_ZL13training_data, i64 0, i64 1268), i64 209980430336)
  call void @_ZN7ap_uintILi49EEC1El(%struct.ap_uint* getelementptr inbounds ([18000 x %struct.ap_uint]* @_ZL13training_data, i64 0, i64 1269), i64 489212059136)
  call void @_ZN7ap_uintILi49EEC1El(%struct.ap_uint* getelementptr inbounds ([18000 x %struct.ap_uint]* @_ZL13training_data, i64 0, i64 1270), i64 419871165952)
  call void @_ZN7ap_uintILi49EEC1El(%struct.ap_uint* getelementptr inbounds ([18000 x %struct.ap_uint]* @_ZL13training_data, i64 0, i64 1271), i64 420416921088)
  call void @_ZN7ap_uintILi49EEC1El(%struct.ap_uint* getelementptr inbounds ([18000 x %struct.ap_uint]* @_ZL13training_data, i64 0, i64 1272), i64 489203666432)
  call void @_ZN7ap_uintILi49EEC1El(%struct.ap_uint* getelementptr inbounds ([18000 x %struct.ap_uint]* @_ZL13training_data, i64 0, i64 1273), i64 973418843904)
  call void @_ZN7ap_uintILi49EEC1El(%struct.ap_uint* getelementptr inbounds ([18000 x %struct.ap_uint]* @_ZL13training_data, i64 0, i64 1274), i64 420475411968)
  call void @_ZN7ap_uintILi49EEC1El(%struct.ap_uint* getelementptr inbounds ([18000 x %struct.ap_uint]* @_ZL13training_data, i64 0, i64 1275), i64 419879521792)
  call void @_ZN7ap_uintILi49EEC1El(%struct.ap_uint* getelementptr inbounds ([18000 x %struct.ap_uint]* @_ZL13training_data, i64 0, i64 1276), i64 976640315136)
  call void @_ZN7ap_uintILi49EEC1El(%struct.ap_uint* getelementptr inbounds ([18000 x %struct.ap_uint]* @_ZL13training_data, i64 0, i64 1277), i64 208881261568)
  call void @_ZN7ap_uintILi49EEC1El(%struct.ap_uint* getelementptr inbounds ([18000 x %struct.ap_uint]* @_ZL13training_data, i64 0, i64 1278), i64 978829938176)
  call void @_ZN7ap_uintILi49EEC1El(%struct.ap_uint* getelementptr inbounds ([18000 x %struct.ap_uint]* @_ZL13training_data, i64 0, i64 1279), i64 2076151684864)
  call void @_ZN7ap_uintILi49EEC1El(%struct.ap_uint* getelementptr inbounds ([18000 x %struct.ap_uint]* @_ZL13training_data, i64 0, i64 1280), i64 968083934720)
  call void @_ZN7ap_uintILi49EEC1El(%struct.ap_uint* getelementptr inbounds ([18000 x %struct.ap_uint]* @_ZL13training_data, i64 0, i64 1281), i64 967010258432)
  call void @_ZN7ap_uintILi49EEC1Ej(%struct.ap_uint* getelementptr inbounds ([18000 x %struct.ap_uint]* @_ZL13training_data, i64 0, i64 1282), i32 -431028224)
  call void @_ZN7ap_uintILi49EEC1El(%struct.ap_uint* getelementptr inbounds ([18000 x %struct.ap_uint]* @_ZL13training_data, i64 0, i64 1283), i64 970231418368)
  call void @_ZN7ap_uintILi49EEC1El(%struct.ap_uint* getelementptr inbounds ([18000 x %struct.ap_uint]* @_ZL13training_data, i64 0, i64 1284), i64 2069658635784)
  call void @_ZN7ap_uintILi49EEC1El(%struct.ap_uint* getelementptr inbounds ([18000 x %struct.ap_uint]* @_ZL13training_data, i64 0, i64 1285), i64 968092388864)
  call void @_ZN7ap_uintILi49EEC1El(%struct.ap_uint* getelementptr inbounds ([18000 x %struct.ap_uint]* @_ZL13training_data, i64 0, i64 1286), i64 419879521792)
  call void @_ZN7ap_uintILi49EEC1El(%struct.ap_uint* getelementptr inbounds ([18000 x %struct.ap_uint]* @_ZL13training_data, i64 0, i64 1287), i64 278141405696)
  call void @_ZN7ap_uintILi49EEC1El(%struct.ap_uint* getelementptr inbounds ([18000 x %struct.ap_uint]* @_ZL13training_data, i64 0, i64 1288), i64 420475342600)
  call void @_ZN7ap_uintILi49EEC1El(%struct.ap_uint* getelementptr inbounds ([18000 x %struct.ap_uint]* @_ZL13training_data, i64 0, i64 1289), i64 481653496832)
  call void @_ZN7ap_uintILi49EEC1El(%struct.ap_uint* getelementptr inbounds ([18000 x %struct.ap_uint]* @_ZL13training_data, i64 0, i64 1290), i64 830048929280)
  call void @_ZN7ap_uintILi49EEC1El(%struct.ap_uint* getelementptr inbounds ([18000 x %struct.ap_uint]* @_ZL13training_data, i64 0, i64 1291), i64 418294304256)
  call void @_ZN7ap_uintILi49EEC1El(%struct.ap_uint* getelementptr inbounds ([18000 x %struct.ap_uint]* @_ZL13training_data, i64 0, i64 1292), i64 970231488000)
  call void @_ZN7ap_uintILi49EEC1El(%struct.ap_uint* getelementptr inbounds ([18000 x %struct.ap_uint]* @_ZL13training_data, i64 0, i64 1293), i64 209963523584)
  call void @_ZN7ap_uintILi49EEC1El(%struct.ap_uint* getelementptr inbounds ([18000 x %struct.ap_uint]* @_ZL13training_data, i64 0, i64 1294), i64 488087592448)
  call void @_ZN7ap_uintILi49EEC1El(%struct.ap_uint* getelementptr inbounds ([18000 x %struct.ap_uint]* @_ZL13training_data, i64 0, i64 1295), i64 416180575232)
  call void @_ZN7ap_uintILi49EEC1El(%struct.ap_uint* getelementptr inbounds ([18000 x %struct.ap_uint]* @_ZL13training_data, i64 0, i64 1296), i64 830044702208)
  call void @_ZN7ap_uintILi49EEC1El(%struct.ap_uint* getelementptr inbounds ([18000 x %struct.ap_uint]* @_ZL13training_data, i64 0, i64 1297), i64 213184617472)
  call void @_ZN7ap_uintILi49EEC1El(%struct.ap_uint* getelementptr inbounds ([18000 x %struct.ap_uint]* @_ZL13training_data, i64 0, i64 1298), i64 416113565200)
  call void @_ZN7ap_uintILi49EEC1El(%struct.ap_uint* getelementptr inbounds ([18000 x %struct.ap_uint]* @_ZL13training_data, i64 0, i64 1299), i64 420408561152)
  call void @_ZN7ap_uintILi49EEC1El(%struct.ap_uint* getelementptr inbounds ([18000 x %struct.ap_uint]* @_ZL13training_data, i64 0, i64 1300), i64 419334819328)
  call void @_ZN7ap_uintILi49EEC1El(%struct.ap_uint* getelementptr inbounds ([18000 x %struct.ap_uint]* @_ZL13training_data, i64 0, i64 1301), i64 418269432832)
  call void @_ZN7ap_uintILi49EEC1El(%struct.ap_uint* getelementptr inbounds ([18000 x %struct.ap_uint]* @_ZL13training_data, i64 0, i64 1302), i64 429031788032)
  call void @_ZN7ap_uintILi49EEC1El(%struct.ap_uint* getelementptr inbounds ([18000 x %struct.ap_uint]* @_ZL13training_data, i64 0, i64 1303), i64 483759070208)
  call void @_ZN7ap_uintILi49EEC1El(%struct.ap_uint* getelementptr inbounds ([18000 x %struct.ap_uint]* @_ZL13training_data, i64 0, i64 1304), i64 975568408320)
  call void @_ZN7ap_uintILi49EEC1El(%struct.ap_uint* getelementptr inbounds ([18000 x %struct.ap_uint]* @_ZL13training_data, i64 0, i64 1305), i64 485973924864)
  call void @_ZN7ap_uintILi49EEC1El(%struct.ap_uint* getelementptr inbounds ([18000 x %struct.ap_uint]* @_ZL13training_data, i64 0, i64 1306), i64 419334819328)
  call void @_ZN7ap_uintILi49EEC1El(%struct.ap_uint* getelementptr inbounds ([18000 x %struct.ap_uint]* @_ZL13training_data, i64 0, i64 1307), i64 830107586048)
  call void @_ZN7ap_uintILi49EEC1El(%struct.ap_uint* getelementptr inbounds ([18000 x %struct.ap_uint]* @_ZL13training_data, i64 0, i64 1308), i64 418302758400)
  call void @_ZN7ap_uintILi49EEC1El(%struct.ap_uint* getelementptr inbounds ([18000 x %struct.ap_uint]* @_ZL13training_data, i64 0, i64 1309), i64 417254121216)
  call void @_ZN7ap_uintILi49EEC1El(%struct.ap_uint* getelementptr inbounds ([18000 x %struct.ap_uint]* @_ZL13training_data, i64 0, i64 1310), i64 488053738496)
  call void @_ZN7ap_uintILi49EEC1El(%struct.ap_uint* getelementptr inbounds ([18000 x %struct.ap_uint]* @_ZL13training_data, i64 0, i64 1311), i64 209958931456)
  call void @_ZN7ap_uintILi49EEC1El(%struct.ap_uint* getelementptr inbounds ([18000 x %struct.ap_uint]* @_ZL13training_data, i64 0, i64 1312), i64 419334659072)
  call void @_ZN7ap_uintILi49EEC1El(%struct.ap_uint* getelementptr inbounds ([18000 x %struct.ap_uint]* @_ZL13training_data, i64 0, i64 1313), i64 488056135168)
  call void @_ZN7ap_uintILi49EEC1El(%struct.ap_uint* getelementptr inbounds ([18000 x %struct.ap_uint]* @_ZL13training_data, i64 0, i64 1314), i64 969157676552)
  call void @_ZN7ap_uintILi49EEC1El(%struct.ap_uint* getelementptr inbounds ([18000 x %struct.ap_uint]* @_ZL13training_data, i64 0, i64 1315), i64 968050118144)
  call void @_ZN7ap_uintILi49EEC1El(%struct.ap_uint* getelementptr inbounds ([18000 x %struct.ap_uint]* @_ZL13training_data, i64 0, i64 1316), i64 420492582400)
  call void @_ZN7ap_uintILi49EEC1El(%struct.ap_uint* getelementptr inbounds ([18000 x %struct.ap_uint]* @_ZL13training_data, i64 0, i64 1317), i64 967487852032)
  call void @_ZN7ap_uintILi49EEC1El(%struct.ap_uint* getelementptr inbounds ([18000 x %struct.ap_uint]* @_ZL13training_data, i64 0, i64 1318), i64 485973593600)
  call void @_ZN7ap_uintILi49EEC1El(%struct.ap_uint* getelementptr inbounds ([18000 x %struct.ap_uint]* @_ZL13training_data, i64 0, i64 1319), i64 420433862144)
  call void @_ZN7ap_uintILi49EEC1El(%struct.ap_uint* getelementptr inbounds ([18000 x %struct.ap_uint]* @_ZL13training_data, i64 0, i64 1320), i64 420443950080)
  call void @_ZN7ap_uintILi49EEC1El(%struct.ap_uint* getelementptr inbounds ([18000 x %struct.ap_uint]* @_ZL13training_data, i64 0, i64 1321), i64 420408036864)
  call void @_ZN7ap_uintILi49EEC1El(%struct.ap_uint* getelementptr inbounds ([18000 x %struct.ap_uint]* @_ZL13training_data, i64 0, i64 1322), i64 419875326976)
  call void @_ZN7ap_uintILi49EEC1El(%struct.ap_uint* getelementptr inbounds ([18000 x %struct.ap_uint]* @_ZL13training_data, i64 0, i64 1323), i64 420475411968)
  call void @_ZN7ap_uintILi49EEC1El(%struct.ap_uint* getelementptr inbounds ([18000 x %struct.ap_uint]* @_ZL13training_data, i64 0, i64 1324), i64 489128042000)
  call void @_ZN7ap_uintILi49EEC1El(%struct.ap_uint* getelementptr inbounds ([18000 x %struct.ap_uint]* @_ZL13training_data, i64 0, i64 1325), i64 488129928704)
  call void @_ZN7ap_uintILi49EEC1El(%struct.ap_uint* getelementptr inbounds ([18000 x %struct.ap_uint]* @_ZL13training_data, i64 0, i64 1326), i64 415585078784)
  call void @_ZN7ap_uintILi49EEC1El(%struct.ap_uint* getelementptr inbounds ([18000 x %struct.ap_uint]* @_ZL13training_data, i64 0, i64 1327), i64 209421798400)
  call void @_ZN7ap_uintILi49EEC1El(%struct.ap_uint* getelementptr inbounds ([18000 x %struct.ap_uint]* @_ZL13training_data, i64 0, i64 1328), i64 970188983816)
  call void @_ZN7ap_uintILi49EEC1El(%struct.ap_uint* getelementptr inbounds ([18000 x %struct.ap_uint]* @_ZL13training_data, i64 0, i64 1329), i64 214258490880)
  call void @_ZN7ap_uintILi49EEC1El(%struct.ap_uint* getelementptr inbounds ([18000 x %struct.ap_uint]* @_ZL13training_data, i64 0, i64 1330), i64 840811716352)
  call void @_ZN7ap_uintILi49EEC1El(%struct.ap_uint* getelementptr inbounds ([18000 x %struct.ap_uint]* @_ZL13training_data, i64 0, i64 1331), i64 420412198400)
  call void @_ZN7ap_uintILi49EEC1El(%struct.ap_uint* getelementptr inbounds ([18000 x %struct.ap_uint]* @_ZL13training_data, i64 0, i64 1332), i64 976640052992)
  call void @_ZN7ap_uintILi49EEC1El(%struct.ap_uint* getelementptr inbounds ([18000 x %struct.ap_uint]* @_ZL13training_data, i64 0, i64 1333), i64 420416916992)
  call void @_ZN7ap_uintILi49EEC1El(%struct.ap_uint* getelementptr inbounds ([18000 x %struct.ap_uint]* @_ZL13training_data, i64 0, i64 1334), i64 420483763712)
  call void @_ZN7ap_uintILi49EEC1El(%struct.ap_uint* getelementptr inbounds ([18000 x %struct.ap_uint]* @_ZL13training_data, i64 0, i64 1335), i64 1047542996480)
  call void @_ZN7ap_uintILi49EEC1El(%struct.ap_uint* getelementptr inbounds ([18000 x %struct.ap_uint]* @_ZL13training_data, i64 0, i64 1336), i64 418327928320)
  call void @_ZN7ap_uintILi49EEC1El(%struct.ap_uint* getelementptr inbounds ([18000 x %struct.ap_uint]* @_ZL13training_data, i64 0, i64 1337), i64 976682323456)
  call void @_ZN7ap_uintILi49EEC1El(%struct.ap_uint* getelementptr inbounds ([18000 x %struct.ap_uint]* @_ZL13training_data, i64 0, i64 1338), i64 971271081472)
  call void @_ZN7ap_uintILi49EEC1El(%struct.ap_uint* getelementptr inbounds ([18000 x %struct.ap_uint]* @_ZL13training_data, i64 0, i64 1339), i64 282436406784)
  call void @_ZN7ap_uintILi49EEC1El(%struct.ap_uint* getelementptr inbounds ([18000 x %struct.ap_uint]* @_ZL13training_data, i64 0, i64 1340), i64 978787540488)
  call void @_ZN7ap_uintILi49EEC1El(%struct.ap_uint* getelementptr inbounds ([18000 x %struct.ap_uint]* @_ZL13training_data, i64 0, i64 1341), i64 420408564736)
  call void @_ZN7ap_uintILi49EEC1El(%struct.ap_uint* getelementptr inbounds ([18000 x %struct.ap_uint]* @_ZL13training_data, i64 0, i64 1342), i64 489197374976)
  call void @_ZN7ap_uintILi49EEC1El(%struct.ap_uint* getelementptr inbounds ([18000 x %struct.ap_uint]* @_ZL13training_data, i64 0, i64 1343), i64 419879554560)
  call void @_ZN7ap_uintILi49EEC1El(%struct.ap_uint* getelementptr inbounds ([18000 x %struct.ap_uint]* @_ZL13training_data, i64 0, i64 1344), i64 417187335680)
  call void @_ZN7ap_uintILi49EEC1El(%struct.ap_uint* getelementptr inbounds ([18000 x %struct.ap_uint]* @_ZL13training_data, i64 0, i64 1345), i64 1038951095808)
  call void @_ZN7ap_uintILi49EEC1El(%struct.ap_uint* getelementptr inbounds ([18000 x %struct.ap_uint]* @_ZL13training_data, i64 0, i64 1346), i64 420416425472)
  call void @_ZN7ap_uintILi49EEC1El(%struct.ap_uint* getelementptr inbounds ([18000 x %struct.ap_uint]* @_ZL13training_data, i64 0, i64 1347), i64 489136557568)
  call void @_ZN7ap_uintILi49EEC1El(%struct.ap_uint* getelementptr inbounds ([18000 x %struct.ap_uint]* @_ZL13training_data, i64 0, i64 1348), i64 976642219520)
  call void @_ZN7ap_uintILi49EEC1El(%struct.ap_uint* getelementptr inbounds ([18000 x %struct.ap_uint]* @_ZL13training_data, i64 0, i64 1349), i64 420475805184)
  call void @_ZN7ap_uintILi49EEC1El(%struct.ap_uint* getelementptr inbounds ([18000 x %struct.ap_uint]* @_ZL13training_data, i64 0, i64 1350), i64 420475608584)
  call void @_ZN7ap_uintILi49EEC1El(%struct.ap_uint* getelementptr inbounds ([18000 x %struct.ap_uint]* @_ZL13training_data, i64 0, i64 1351), i64 971271413248)
  call void @_ZN7ap_uintILi49EEC1El(%struct.ap_uint* getelementptr inbounds ([18000 x %struct.ap_uint]* @_ZL13training_data, i64 0, i64 1352), i64 489136397328)
  call void @_ZN7ap_uintILi49EEC1El(%struct.ap_uint* getelementptr inbounds ([18000 x %struct.ap_uint]* @_ZL13training_data, i64 0, i64 1353), i64 703943184136)
  call void @_ZN7ap_uintILi49EEC1El(%struct.ap_uint* getelementptr inbounds ([18000 x %struct.ap_uint]* @_ZL13training_data, i64 0, i64 1354), i64 208881392640)
  call void @_ZN7ap_uintILi49EEC1El(%struct.ap_uint* getelementptr inbounds ([18000 x %struct.ap_uint]* @_ZL13training_data, i64 0, i64 1355), i64 244314610688)
  call void @_ZN7ap_uintILi49EEC1El(%struct.ap_uint* getelementptr inbounds ([18000 x %struct.ap_uint]* @_ZL13training_data, i64 0, i64 1356), i64 420408036864)
  call void @_ZN7ap_uintILi49EEC1El(%struct.ap_uint* getelementptr inbounds ([18000 x %struct.ap_uint]* @_ZL13training_data, i64 0, i64 1357), i64 970163850752)
  call void @_ZN7ap_uintILi49EEC1El(%struct.ap_uint* getelementptr inbounds ([18000 x %struct.ap_uint]* @_ZL13training_data, i64 0, i64 1358), i64 416138730512)
  call void @_ZN7ap_uintILi49EEC1El(%struct.ap_uint* getelementptr inbounds ([18000 x %struct.ap_uint]* @_ZL13training_data, i64 0, i64 1359), i64 420475670016)
  call void @_ZN7ap_uintILi49EEC1El(%struct.ap_uint* getelementptr inbounds ([18000 x %struct.ap_uint]* @_ZL13training_data, i64 0, i64 1360), i64 489211928064)
  call void @_ZN7ap_uintILi49EEC1El(%struct.ap_uint* getelementptr inbounds ([18000 x %struct.ap_uint]* @_ZL13training_data, i64 0, i64 1361), i64 840870891264)
  call void @_ZN7ap_uintILi49EEC1El(%struct.ap_uint* getelementptr inbounds ([18000 x %struct.ap_uint]* @_ZL13training_data, i64 0, i64 1362), i64 420484189184)
  call void @_ZN7ap_uintILi49EEC1El(%struct.ap_uint* getelementptr inbounds ([18000 x %struct.ap_uint]* @_ZL13training_data, i64 0, i64 1363), i64 967010258432)
  call void @_ZN7ap_uintILi49EEC1El(%struct.ap_uint* getelementptr inbounds ([18000 x %struct.ap_uint]* @_ZL13training_data, i64 0, i64 1364), i64 214250101760)
  call void @_ZN7ap_uintILi49EEC1El(%struct.ap_uint* getelementptr inbounds ([18000 x %struct.ap_uint]* @_ZL13training_data, i64 0, i64 1365), i64 418328186368)
  call void @_ZN7ap_uintILi49EEC1El(%struct.ap_uint* getelementptr inbounds ([18000 x %struct.ap_uint]* @_ZL13training_data, i64 0, i64 1366), i64 488087526928)
  call void @_ZN7ap_uintILi49EEC1El(%struct.ap_uint* getelementptr inbounds ([18000 x %struct.ap_uint]* @_ZL13training_data, i64 0, i64 1367), i64 214342540800)
  call void @_ZN7ap_uintILi49EEC1El(%struct.ap_uint* getelementptr inbounds ([18000 x %struct.ap_uint]* @_ZL13training_data, i64 0, i64 1368), i64 418260553216)
  call void @_ZN7ap_uintILi49EEC1El(%struct.ap_uint* getelementptr inbounds ([18000 x %struct.ap_uint]* @_ZL13training_data, i64 0, i64 1369), i64 420475411968)
  call void @_ZN7ap_uintILi49EEC1El(%struct.ap_uint* getelementptr inbounds ([18000 x %struct.ap_uint]* @_ZL13training_data, i64 0, i64 1370), i64 420412198400)
  call void @_ZN7ap_uintILi49EEC1El(%struct.ap_uint* getelementptr inbounds ([18000 x %struct.ap_uint]* @_ZL13training_data, i64 0, i64 1371), i64 213184879616)
  call void @_ZN7ap_uintILi49EEC1El(%struct.ap_uint* getelementptr inbounds ([18000 x %struct.ap_uint]* @_ZL13training_data, i64 0, i64 1372), i64 968050449920)
  call void @_ZN7ap_uintILi49EEC1El(%struct.ap_uint* getelementptr inbounds ([18000 x %struct.ap_uint]* @_ZL13training_data, i64 0, i64 1373), i64 420484058624)
  call void @_ZN7ap_uintILi49EEC1El(%struct.ap_uint* getelementptr inbounds ([18000 x %struct.ap_uint]* @_ZL13training_data, i64 0, i64 1374), i64 417727843840)
  call void @_ZN7ap_uintILi49EEC1El(%struct.ap_uint* getelementptr inbounds ([18000 x %struct.ap_uint]* @_ZL13training_data, i64 0, i64 1375), i64 488121339392)
  call void @_ZN7ap_uintILi49EEC1El(%struct.ap_uint* getelementptr inbounds ([18000 x %struct.ap_uint]* @_ZL13training_data, i64 0, i64 1376), i64 141256104976)
  call void @_ZN7ap_uintILi49EEC1El(%struct.ap_uint* getelementptr inbounds ([18000 x %struct.ap_uint]* @_ZL13training_data, i64 0, i64 1377), i64 978821353220)
  call void @_ZN7ap_uintILi49EEC1El(%struct.ap_uint* getelementptr inbounds ([18000 x %struct.ap_uint]* @_ZL13training_data, i64 0, i64 1378), i64 417187335680)
  call void @_ZN7ap_uintILi49EEC1El(%struct.ap_uint* getelementptr inbounds ([18000 x %struct.ap_uint]* @_ZL13training_data, i64 0, i64 1379), i64 209980430336)
  call void @_ZN7ap_uintILi49EEC1El(%struct.ap_uint* getelementptr inbounds ([18000 x %struct.ap_uint]* @_ZL13training_data, i64 0, i64 1380), i64 419879521792)
  call void @_ZN7ap_uintILi49EEC1El(%struct.ap_uint* getelementptr inbounds ([18000 x %struct.ap_uint]* @_ZL13training_data, i64 0, i64 1381), i64 418268909056)
  call void @_ZN7ap_uintILi49EEC1El(%struct.ap_uint* getelementptr inbounds ([18000 x %struct.ap_uint]* @_ZL13training_data, i64 0, i64 1382), i64 969710800640)
  call void @_ZN7ap_uintILi49EEC1El(%struct.ap_uint* getelementptr inbounds ([18000 x %struct.ap_uint]* @_ZL13training_data, i64 0, i64 1383), i64 976640298752)
  call void @_ZN7ap_uintILi49EEC1El(%struct.ap_uint* getelementptr inbounds ([18000 x %struct.ap_uint]* @_ZL13training_data, i64 0, i64 1384), i64 417187302912)
  call void @_ZN7ap_uintILi49EEC1El(%struct.ap_uint* getelementptr inbounds ([18000 x %struct.ap_uint]* @_ZL13training_data, i64 0, i64 1385), i64 8183546880)
  call void @_ZN7ap_uintILi49EEC1El(%struct.ap_uint* getelementptr inbounds ([18000 x %struct.ap_uint]* @_ZL13training_data, i64 0, i64 1386), i64 1047542931200)
  call void @_ZN7ap_uintILi49EEC1El(%struct.ap_uint* getelementptr inbounds ([18000 x %struct.ap_uint]* @_ZL13training_data, i64 0, i64 1387), i64 420475346432)
  call void @_ZN7ap_uintILi49EEC1El(%struct.ap_uint* getelementptr inbounds ([18000 x %struct.ap_uint]* @_ZL13training_data, i64 0, i64 1388), i64 243782327296)
  call void @_ZN7ap_uintILi49EEC1El(%struct.ap_uint* getelementptr inbounds ([18000 x %struct.ap_uint]* @_ZL13training_data, i64 0, i64 1389), i64 975566310912)
  call void @_ZN7ap_uintILi49EEC1El(%struct.ap_uint* getelementptr inbounds ([18000 x %struct.ap_uint]* @_ZL13training_data, i64 0, i64 1390), i64 488121114112)
  call void @_ZN7ap_uintILi49EEC1El(%struct.ap_uint* getelementptr inbounds ([18000 x %struct.ap_uint]* @_ZL13training_data, i64 0, i64 1391), i64 417727843328)
  call void @_ZN7ap_uintILi49EEC1El(%struct.ap_uint* getelementptr inbounds ([18000 x %struct.ap_uint]* @_ZL13training_data, i64 0, i64 1392), i64 419334262272)
  call void @_ZN7ap_uintILi49EEC1El(%struct.ap_uint* getelementptr inbounds ([18000 x %struct.ap_uint]* @_ZL13training_data, i64 0, i64 1393), i64 417186745856)
  call void @_ZN7ap_uintILi49EEC1El(%struct.ap_uint* getelementptr inbounds ([18000 x %struct.ap_uint]* @_ZL13training_data, i64 0, i64 1394), i64 970231418624)
  call void @_ZN7ap_uintILi49EEC1El(%struct.ap_uint* getelementptr inbounds ([18000 x %struct.ap_uint]* @_ZL13training_data, i64 0, i64 1395), i64 141256100864)
  call void @_ZN7ap_uintILi49EEC1El(%struct.ap_uint* getelementptr inbounds ([18000 x %struct.ap_uint]* @_ZL13training_data, i64 0, i64 1396), i64 489136000000)
  call void @_ZN7ap_uintILi49EEC1El(%struct.ap_uint* getelementptr inbounds ([18000 x %struct.ap_uint]* @_ZL13training_data, i64 0, i64 1397), i64 420484193792)
  call void @_ZN7ap_uintILi49EEC1El(%struct.ap_uint* getelementptr inbounds ([18000 x %struct.ap_uint]* @_ZL13training_data, i64 0, i64 1398), i64 429040573952)
  call void @_ZN7ap_uintILi49EEC1El(%struct.ap_uint* getelementptr inbounds ([18000 x %struct.ap_uint]* @_ZL13training_data, i64 0, i64 1399), i64 967010127360)
  call void @_ZN7ap_uintILi49EEC1El(%struct.ap_uint* getelementptr inbounds ([18000 x %struct.ap_uint]* @_ZL13training_data, i64 0, i64 1400), i64 485910715392)
  call void @_ZN7ap_uintILi49EEC1El(%struct.ap_uint* getelementptr inbounds ([18000 x %struct.ap_uint]* @_ZL13training_data, i64 0, i64 1401), i64 282440535552)
  call void @_ZN7ap_uintILi49EEC1El(%struct.ap_uint* getelementptr inbounds ([18000 x %struct.ap_uint]* @_ZL13training_data, i64 0, i64 1402), i64 484841425920)
  call void @_ZN7ap_uintILi49EEC1El(%struct.ap_uint* getelementptr inbounds ([18000 x %struct.ap_uint]* @_ZL13training_data, i64 0, i64 1403), i64 489195150336)
  call void @_ZN7ap_uintILi49EEC1El(%struct.ap_uint* getelementptr inbounds ([18000 x %struct.ap_uint]* @_ZL13training_data, i64 0, i64 1404), i64 975599603200)
  call void @_ZN7ap_uintILi49EEC1El(%struct.ap_uint* getelementptr inbounds ([18000 x %struct.ap_uint]* @_ZL13training_data, i64 0, i64 1405), i64 967521963520)
  call void @_ZN7ap_uintILi49EEC1El(%struct.ap_uint* getelementptr inbounds ([18000 x %struct.ap_uint]* @_ZL13training_data, i64 0, i64 1406), i64 282441060096)
  call void @_ZN7ap_uintILi49EEC1El(%struct.ap_uint* getelementptr inbounds ([18000 x %struct.ap_uint]* @_ZL13training_data, i64 0, i64 1407), i64 429065029376)
  call void @_ZN7ap_uintILi49EEC1El(%struct.ap_uint* getelementptr inbounds ([18000 x %struct.ap_uint]* @_ZL13training_data, i64 0, i64 1408), i64 489195146752)
  call void @_ZN7ap_uintILi49EEC1El(%struct.ap_uint* getelementptr inbounds ([18000 x %struct.ap_uint]* @_ZL13training_data, i64 0, i64 1409), i64 419947318784)
  call void @_ZN7ap_uintILi49EEC1El(%struct.ap_uint* getelementptr inbounds ([18000 x %struct.ap_uint]* @_ZL13training_data, i64 0, i64 1410), i64 8177814528)
  call void @_ZN7ap_uintILi49EEC1El(%struct.ap_uint* getelementptr inbounds ([18000 x %struct.ap_uint]* @_ZL13training_data, i64 0, i64 1411), i64 485906521600)
  call void @_ZN7ap_uintILi49EEC1El(%struct.ap_uint* getelementptr inbounds ([18000 x %struct.ap_uint]* @_ZL13training_data, i64 0, i64 1412), i64 209438706688)
  call void @_ZN7ap_uintILi49EEC1El(%struct.ap_uint* getelementptr inbounds ([18000 x %struct.ap_uint]* @_ZL13training_data, i64 0, i64 1413), i64 419875458048)
  call void @_ZN7ap_uintILi49EEC1El(%struct.ap_uint* getelementptr inbounds ([18000 x %struct.ap_uint]* @_ZL13training_data, i64 0, i64 1414), i64 419334295040)
  call void @_ZN7ap_uintILi49EEC1El(%struct.ap_uint* getelementptr inbounds ([18000 x %struct.ap_uint]* @_ZL13training_data, i64 0, i64 1415), i64 839201378048)
  call void @_ZN7ap_uintILi49EEC1El(%struct.ap_uint* getelementptr inbounds ([18000 x %struct.ap_uint]* @_ZL13training_data, i64 0, i64 1416), i64 8142162944)
  call void @_ZN7ap_uintILi49EEC1El(%struct.ap_uint* getelementptr inbounds ([18000 x %struct.ap_uint]* @_ZL13training_data, i64 0, i64 1417), i64 415597267968)
  call void @_ZN7ap_uintILi49EEC1El(%struct.ap_uint* getelementptr inbounds ([18000 x %struct.ap_uint]* @_ZL13training_data, i64 0, i64 1418), i64 209975708672)
  call void @_ZN7ap_uintILi49EEC1El(%struct.ap_uint* getelementptr inbounds ([18000 x %struct.ap_uint]* @_ZL13training_data, i64 0, i64 1419), i64 420412197888)
  call void @_ZN7ap_uintILi49EEC1El(%struct.ap_uint* getelementptr inbounds ([18000 x %struct.ap_uint]* @_ZL13training_data, i64 0, i64 1420), i64 145597893632)
  call void @_ZN7ap_uintILi49EEC1El(%struct.ap_uint* getelementptr inbounds ([18000 x %struct.ap_uint]* @_ZL13training_data, i64 0, i64 1421), i64 76886383616)
  call void @_ZN7ap_uintILi49EEC1El(%struct.ap_uint* getelementptr inbounds ([18000 x %struct.ap_uint]* @_ZL13training_data, i64 0, i64 1422), i64 282436371968)
  call void @_ZN7ap_uintILi49EEC1El(%struct.ap_uint* getelementptr inbounds ([18000 x %struct.ap_uint]* @_ZL13training_data, i64 0, i64 1423), i64 209954872320)
  call void @_ZN7ap_uintILi49EEC1El(%struct.ap_uint* getelementptr inbounds ([18000 x %struct.ap_uint]* @_ZL13training_data, i64 0, i64 1424), i64 832196873728)
  call void @_ZN7ap_uintILi49EEC1El(%struct.ap_uint* getelementptr inbounds ([18000 x %struct.ap_uint]* @_ZL13training_data, i64 0, i64 1425), i64 420475411456)
  call void @_ZN7ap_uintILi49EEC1El(%struct.ap_uint* getelementptr inbounds ([18000 x %struct.ap_uint]* @_ZL13training_data, i64 0, i64 1426), i64 140702583808)
  call void @_ZN7ap_uintILi49EEC1El(%struct.ap_uint* getelementptr inbounds ([18000 x %struct.ap_uint]* @_ZL13training_data, i64 0, i64 1427), i64 969635335680)
  call void @_ZN7ap_uintILi49EEC1El(%struct.ap_uint* getelementptr inbounds ([18000 x %struct.ap_uint]* @_ZL13training_data, i64 0, i64 1428), i64 830609071616)
  call void @_ZN7ap_uintILi49EEC1El(%struct.ap_uint* getelementptr inbounds ([18000 x %struct.ap_uint]* @_ZL13training_data, i64 0, i64 1429), i64 282436371968)
  call void @_ZN7ap_uintILi49EEC1El(%struct.ap_uint* getelementptr inbounds ([18000 x %struct.ap_uint]* @_ZL13training_data, i64 0, i64 1430), i64 417732070912)
  call void @_ZN7ap_uintILi49EEC1El(%struct.ap_uint* getelementptr inbounds ([18000 x %struct.ap_uint]* @_ZL13training_data, i64 0, i64 1431), i64 428503502592)
  call void @_ZN7ap_uintILi49EEC1El(%struct.ap_uint* getelementptr inbounds ([18000 x %struct.ap_uint]* @_ZL13training_data, i64 0, i64 1432), i64 208948369408)
  call void @_ZN7ap_uintILi49EEC1El(%struct.ap_uint* getelementptr inbounds ([18000 x %struct.ap_uint]* @_ZL13training_data, i64 0, i64 1433), i64 976673869312)
  call void @_ZN7ap_uintILi49EEC1El(%struct.ap_uint* getelementptr inbounds ([18000 x %struct.ap_uint]* @_ZL13training_data, i64 0, i64 1434), i64 566453702144)
  call void @_ZN7ap_uintILi49EEC1El(%struct.ap_uint* getelementptr inbounds ([18000 x %struct.ap_uint]* @_ZL13training_data, i64 0, i64 1435), i64 145597636096)
  call void @_ZN7ap_uintILi49EEC1El(%struct.ap_uint* getelementptr inbounds ([18000 x %struct.ap_uint]* @_ZL13training_data, i64 0, i64 1436), i64 832230460928)
  call void @_ZN7ap_uintILi49EEC1El(%struct.ap_uint* getelementptr inbounds ([18000 x %struct.ap_uint]* @_ZL13training_data, i64 0, i64 1437), i64 420424785424)
  call void @_ZN7ap_uintILi49EEC1El(%struct.ap_uint* getelementptr inbounds ([18000 x %struct.ap_uint]* @_ZL13training_data, i64 0, i64 1438), i64 485398711808)
  call void @_ZN7ap_uintILi49EEC1El(%struct.ap_uint* getelementptr inbounds ([18000 x %struct.ap_uint]* @_ZL13training_data, i64 0, i64 1439), i64 208881360384)
  call void @_ZN7ap_uintILi49EEC1El(%struct.ap_uint* getelementptr inbounds ([18000 x %struct.ap_uint]* @_ZL13training_data, i64 0, i64 1440), i64 143450380288)
  call void @_ZN7ap_uintILi49EEC1El(%struct.ap_uint* getelementptr inbounds ([18000 x %struct.ap_uint]* @_ZL13training_data, i64 0, i64 1441), i64 1035729739264)
  call void @_ZN7ap_uintILi49EEC1El(%struct.ap_uint* getelementptr inbounds ([18000 x %struct.ap_uint]* @_ZL13training_data, i64 0, i64 1442), i64 282436374016)
  call void @_ZN7ap_uintILi49EEC1El(%struct.ap_uint* getelementptr inbounds ([18000 x %struct.ap_uint]* @_ZL13training_data, i64 0, i64 1443), i64 830116040192)
  call void @_ZN7ap_uintILi49EEC1El(%struct.ap_uint* getelementptr inbounds ([18000 x %struct.ap_uint]* @_ZL13training_data, i64 0, i64 1444), i64 970184789504)
  call void @_ZN7ap_uintILi49EEC1El(%struct.ap_uint* getelementptr inbounds ([18000 x %struct.ap_uint]* @_ZL13training_data, i64 0, i64 1445), i64 830108110592)
  call void @_ZN7ap_uintILi49EEC1El(%struct.ap_uint* getelementptr inbounds ([18000 x %struct.ap_uint]* @_ZL13training_data, i64 0, i64 1446), i64 417254116864)
  call void @_ZN7ap_uintILi49EEC1El(%struct.ap_uint* getelementptr inbounds ([18000 x %struct.ap_uint]* @_ZL13training_data, i64 0, i64 1447), i64 419334229504)
  call void @_ZN7ap_uintILi49EEC1El(%struct.ap_uint* getelementptr inbounds ([18000 x %struct.ap_uint]* @_ZL13training_data, i64 0, i64 1448), i64 484900019200)
  call void @_ZN7ap_uintILi49EEC1El(%struct.ap_uint* getelementptr inbounds ([18000 x %struct.ap_uint]* @_ZL13training_data, i64 0, i64 1449), i64 489194819080)
  call void @_ZN7ap_uintILi49EEC1El(%struct.ap_uint* getelementptr inbounds ([18000 x %struct.ap_uint]* @_ZL13training_data, i64 0, i64 1450), i64 489194888704)
  call void @_ZN7ap_uintILi49EEC1El(%struct.ap_uint* getelementptr inbounds ([18000 x %struct.ap_uint]* @_ZL13training_data, i64 0, i64 1451), i64 208881392640)
  call void @_ZN7ap_uintILi49EEC1El(%struct.ap_uint* getelementptr inbounds ([18000 x %struct.ap_uint]* @_ZL13training_data, i64 0, i64 1452), i64 420416916992)
  call void @_ZN7ap_uintILi49EEC1El(%struct.ap_uint* getelementptr inbounds ([18000 x %struct.ap_uint]* @_ZL13training_data, i64 0, i64 1453), i64 8158937088)
  call void @_ZN7ap_uintILi49EEC1El(%struct.ap_uint* getelementptr inbounds ([18000 x %struct.ap_uint]* @_ZL13training_data, i64 0, i64 1454), i64 209980431360)
  call void @_ZN7ap_uintILi49EEC1El(%struct.ap_uint* getelementptr inbounds ([18000 x %struct.ap_uint]* @_ZL13training_data, i64 0, i64 1455), i64 417220599296)
  call void @_ZN7ap_uintILi49EEC1El(%struct.ap_uint* getelementptr inbounds ([18000 x %struct.ap_uint]* @_ZL13training_data, i64 0, i64 1456), i64 420483800576)
  call void @_ZN7ap_uintILi49EEC1El(%struct.ap_uint* getelementptr inbounds ([18000 x %struct.ap_uint]* @_ZL13training_data, i64 0, i64 1457), i64 420484062728)
  call void @_ZN7ap_uintILi49EEC1El(%struct.ap_uint* getelementptr inbounds ([18000 x %struct.ap_uint]* @_ZL13training_data, i64 0, i64 1458), i64 419875327488)
  call void @_ZN7ap_uintILi49EEC1El(%struct.ap_uint* getelementptr inbounds ([18000 x %struct.ap_uint]* @_ZL13training_data, i64 0, i64 1459), i64 975600127496)
  call void @_ZN7ap_uintILi49EEC1El(%struct.ap_uint* getelementptr inbounds ([18000 x %struct.ap_uint]* @_ZL13training_data, i64 0, i64 1460), i64 415580490752)
  call void @_ZN7ap_uintILi49EEC1El(%struct.ap_uint* getelementptr inbounds ([18000 x %struct.ap_uint]* @_ZL13training_data, i64 0, i64 1461), i64 141260856832)
  call void @_ZN7ap_uintILi49EEC1El(%struct.ap_uint* getelementptr inbounds ([18000 x %struct.ap_uint]* @_ZL13training_data, i64 0, i64 1462), i64 291106508544)
  call void @_ZN7ap_uintILi49EEC1El(%struct.ap_uint* getelementptr inbounds ([18000 x %struct.ap_uint]* @_ZL13training_data, i64 0, i64 1463), i64 209980300288)
  call void @_ZN7ap_uintILi49EEC1El(%struct.ap_uint* getelementptr inbounds ([18000 x %struct.ap_uint]* @_ZL13training_data, i64 0, i64 1464), i64 483759295488)
  call void @_ZN7ap_uintILi49EEC1El(%struct.ap_uint* getelementptr inbounds ([18000 x %struct.ap_uint]* @_ZL13training_data, i64 0, i64 1465), i64 145597500416)
  call void @_ZN7ap_uintILi49EEC1El(%struct.ap_uint* getelementptr inbounds ([18000 x %struct.ap_uint]* @_ZL13training_data, i64 0, i64 1466), i64 420408499712)
  call void @_ZN7ap_uintILi49EEC1El(%struct.ap_uint* getelementptr inbounds ([18000 x %struct.ap_uint]* @_ZL13training_data, i64 0, i64 1467), i64 497784823296)
  call void @_ZN7ap_uintILi49EEC1El(%struct.ap_uint* getelementptr inbounds ([18000 x %struct.ap_uint]* @_ZL13training_data, i64 0, i64 1468), i64 968016563712)
  call void @_ZN7ap_uintILi49EEC1El(%struct.ap_uint* getelementptr inbounds ([18000 x %struct.ap_uint]* @_ZL13training_data, i64 0, i64 1469), i64 209980431360)
  call void @_ZN7ap_uintILi49EEC1El(%struct.ap_uint* getelementptr inbounds ([18000 x %struct.ap_uint]* @_ZL13training_data, i64 0, i64 1470), i64 415576165376)
  call void @_ZN7ap_uintILi49EEC1El(%struct.ap_uint* getelementptr inbounds ([18000 x %struct.ap_uint]* @_ZL13training_data, i64 0, i64 1471), i64 967513247232)
  call void @_ZN7ap_uintILi49EEC1El(%struct.ap_uint* getelementptr inbounds ([18000 x %struct.ap_uint]* @_ZL13training_data, i64 0, i64 1472), i64 966942625280)
  call void @_ZN7ap_uintILi49EEC1El(%struct.ap_uint* getelementptr inbounds ([18000 x %struct.ap_uint]* @_ZL13training_data, i64 0, i64 1473), i64 415585078784)
  call void @_ZN7ap_uintILi49EEC1El(%struct.ap_uint* getelementptr inbounds ([18000 x %struct.ap_uint]* @_ZL13training_data, i64 0, i64 1474), i64 488121409024)
  call void @_ZN7ap_uintILi49EEC1El(%struct.ap_uint* getelementptr inbounds ([18000 x %struct.ap_uint]* @_ZL13training_data, i64 0, i64 1475), i64 975566309632)
  call void @_ZN7ap_uintILi49EEC1El(%struct.ap_uint* getelementptr inbounds ([18000 x %struct.ap_uint]* @_ZL13training_data, i64 0, i64 1476), i64 209971911680)
  call void @_ZN7ap_uintILi49EEC1El(%struct.ap_uint* getelementptr inbounds ([18000 x %struct.ap_uint]* @_ZL13training_data, i64 0, i64 1477), i64 420407971328)
  call void @_ZN7ap_uintILi49EEC1El(%struct.ap_uint* getelementptr inbounds ([18000 x %struct.ap_uint]* @_ZL13training_data, i64 0, i64 1478), i64 418261011968)
  call void @_ZN7ap_uintILi49EEC1El(%struct.ap_uint* getelementptr inbounds ([18000 x %struct.ap_uint]* @_ZL13training_data, i64 0, i64 1479), i64 419365953024)
  call void @_ZN7ap_uintILi49EEC1El(%struct.ap_uint* getelementptr inbounds ([18000 x %struct.ap_uint]* @_ZL13training_data, i64 0, i64 1480), i64 420416949760)
  call void @_ZN7ap_uintILi49EEC1El(%struct.ap_uint* getelementptr inbounds ([18000 x %struct.ap_uint]* @_ZL13training_data, i64 0, i64 1481), i64 489211928064)
  call void @_ZN7ap_uintILi49EEC1El(%struct.ap_uint* getelementptr inbounds ([18000 x %struct.ap_uint]* @_ZL13training_data, i64 0, i64 1482), i64 209963654144)
  call void @_ZN7ap_uintILi49EEC1El(%struct.ap_uint* getelementptr inbounds ([18000 x %struct.ap_uint]* @_ZL13training_data, i64 0, i64 1483), i64 488054300160)
  call void @_ZN7ap_uintILi49EEC1El(%struct.ap_uint* getelementptr inbounds ([18000 x %struct.ap_uint]* @_ZL13training_data, i64 0, i64 1484), i64 828966767616)
  call void @_ZN7ap_uintILi49EEC1El(%struct.ap_uint* getelementptr inbounds ([18000 x %struct.ap_uint]* @_ZL13training_data, i64 0, i64 1485), i64 489203637248)
  call void @_ZN7ap_uintILi49EEC1El(%struct.ap_uint* getelementptr inbounds ([18000 x %struct.ap_uint]* @_ZL13training_data, i64 0, i64 1486), i64 488129760768)
  call void @_ZN7ap_uintILi49EEC1El(%struct.ap_uint* getelementptr inbounds ([18000 x %struct.ap_uint]* @_ZL13training_data, i64 0, i64 1487), i64 489195281408)
  call void @_ZN7ap_uintILi49EEC1El(%struct.ap_uint* getelementptr inbounds ([18000 x %struct.ap_uint]* @_ZL13training_data, i64 0, i64 1488), i64 283003292672)
  call void @_ZN7ap_uintILi49EEC1El(%struct.ap_uint* getelementptr inbounds ([18000 x %struct.ap_uint]* @_ZL13training_data, i64 0, i64 1489), i64 420475805184)
  call void @_ZN7ap_uintILi49EEC1El(%struct.ap_uint* getelementptr inbounds ([18000 x %struct.ap_uint]* @_ZL13training_data, i64 0, i64 1490), i64 484841430528)
  call void @_ZN7ap_uintILi49EEC1El(%struct.ap_uint* getelementptr inbounds ([18000 x %struct.ap_uint]* @_ZL13training_data, i64 0, i64 1491), i64 417186778624)
  call void @_ZN7ap_uintILi49EEC1El(%struct.ap_uint* getelementptr inbounds ([18000 x %struct.ap_uint]* @_ZL13training_data, i64 0, i64 1492), i64 418327862784)
  call void @_ZN7ap_uintILi49EEC1El(%struct.ap_uint* getelementptr inbounds ([18000 x %struct.ap_uint]* @_ZL13training_data, i64 0, i64 1493), i64 489136393216)
  call void @_ZN7ap_uintILi49EEC1El(%struct.ap_uint* getelementptr inbounds ([18000 x %struct.ap_uint]* @_ZL13training_data, i64 0, i64 1494), i64 145597504512)
  call void @_ZN7ap_uintILi49EEC1El(%struct.ap_uint* getelementptr inbounds ([18000 x %struct.ap_uint]* @_ZL13training_data, i64 0, i64 1495), i64 488054296064)
  call void @_ZN7ap_uintILi49EEC1El(%struct.ap_uint* getelementptr inbounds ([18000 x %struct.ap_uint]* @_ZL13training_data, i64 0, i64 1496), i64 419334818816)
  call void @_ZN7ap_uintILi49EEC1El(%struct.ap_uint* getelementptr inbounds ([18000 x %struct.ap_uint]* @_ZL13training_data, i64 0, i64 1497), i64 832192187904)
  call void @_ZN7ap_uintILi49EEC1El(%struct.ap_uint* getelementptr inbounds ([18000 x %struct.ap_uint]* @_ZL13training_data, i64 0, i64 1498), i64 978787798784)
  call void @_ZN7ap_uintILi49EEC1El(%struct.ap_uint* getelementptr inbounds ([18000 x %struct.ap_uint]* @_ZL13training_data, i64 0, i64 1499), i64 417186745856)
  call void @_ZN7ap_uintILi49EEC1El(%struct.ap_uint* getelementptr inbounds ([18000 x %struct.ap_uint]* @_ZL13training_data, i64 0, i64 1500), i64 8125382656)
  call void @_ZN7ap_uintILi49EEC1El(%struct.ap_uint* getelementptr inbounds ([18000 x %struct.ap_uint]* @_ZL13training_data, i64 0, i64 1501), i64 970164116992)
  call void @_ZN7ap_uintILi49EEC1El(%struct.ap_uint* getelementptr inbounds ([18000 x %struct.ap_uint]* @_ZL13training_data, i64 0, i64 1502), i64 832209096200)
  call void @_ZN7ap_uintILi49EEC1El(%struct.ap_uint* getelementptr inbounds ([18000 x %struct.ap_uint]* @_ZL13training_data, i64 0, i64 1503), i64 420484025344)
  call void @_ZN7ap_uintILi49EEC1El(%struct.ap_uint* getelementptr inbounds ([18000 x %struct.ap_uint]* @_ZL13training_data, i64 0, i64 1504), i64 419368050176)
  call void @_ZN7ap_uintILi49EEC1El(%struct.ap_uint* getelementptr inbounds ([18000 x %struct.ap_uint]* @_ZL13training_data, i64 0, i64 1505), i64 488121114112)
  call void @_ZN7ap_uintILi49EEC1El(%struct.ap_uint* getelementptr inbounds ([18000 x %struct.ap_uint]* @_ZL13training_data, i64 0, i64 1506), i64 419875326976)
  call void @_ZN7ap_uintILi49EEC1El(%struct.ap_uint* getelementptr inbounds ([18000 x %struct.ap_uint]* @_ZL13training_data, i64 0, i64 1507), i64 967009668608)
  call void @_ZN7ap_uintILi49EEC1El(%struct.ap_uint* getelementptr inbounds ([18000 x %struct.ap_uint]* @_ZL13training_data, i64 0, i64 1508), i64 418294631936)
  call void @_ZN7ap_uintILi49EEC1El(%struct.ap_uint* getelementptr inbounds ([18000 x %struct.ap_uint]* @_ZL13training_data, i64 0, i64 1509), i64 841381875456)
  call void @_ZN7ap_uintILi49EEC1El(%struct.ap_uint* getelementptr inbounds ([18000 x %struct.ap_uint]* @_ZL13training_data, i64 0, i64 1510), i64 488053738496)
  call void @_ZN7ap_uintILi49EEC1El(%struct.ap_uint* getelementptr inbounds ([18000 x %struct.ap_uint]* @_ZL13training_data, i64 0, i64 1511), i64 8175721984)
  call void @_ZN7ap_uintILi49EEC1El(%struct.ap_uint* getelementptr inbounds ([18000 x %struct.ap_uint]* @_ZL13training_data, i64 0, i64 1512), i64 967010192896)
  call void @_ZN7ap_uintILi49EEC1El(%struct.ap_uint* getelementptr inbounds ([18000 x %struct.ap_uint]* @_ZL13training_data, i64 0, i64 1513), i64 418327862784)
  call void @_ZN7ap_uintILi49EEC1El(%struct.ap_uint* getelementptr inbounds ([18000 x %struct.ap_uint]* @_ZL13training_data, i64 0, i64 1514), i64 213176229376)
  call void @_ZN7ap_uintILi49EEC1El(%struct.ap_uint* getelementptr inbounds ([18000 x %struct.ap_uint]* @_ZL13training_data, i64 0, i64 1515), i64 419368115712)
  call void @_ZN7ap_uintILi49EEC1El(%struct.ap_uint* getelementptr inbounds ([18000 x %struct.ap_uint]* @_ZL13training_data, i64 0, i64 1516), i64 841381891840)
  call void @_ZN7ap_uintILi49EEC1El(%struct.ap_uint* getelementptr inbounds ([18000 x %struct.ap_uint]* @_ZL13training_data, i64 0, i64 1517), i64 420416523784)
  call void @_ZN7ap_uintILi49EEC1El(%struct.ap_uint* getelementptr inbounds ([18000 x %struct.ap_uint]* @_ZL13training_data, i64 0, i64 1518), i64 420407971328)
  call void @_ZN7ap_uintILi49EEC1El(%struct.ap_uint* getelementptr inbounds ([18000 x %struct.ap_uint]* @_ZL13training_data, i64 0, i64 1519), i64 210022014464)
  call void @_ZN7ap_uintILi49EEC1El(%struct.ap_uint* getelementptr inbounds ([18000 x %struct.ap_uint]* @_ZL13training_data, i64 0, i64 1520), i64 213176097792)
  call void @_ZN7ap_uintILi49EEC1El(%struct.ap_uint* getelementptr inbounds ([18000 x %struct.ap_uint]* @_ZL13training_data, i64 0, i64 1521), i64 485973663232)
  call void @_ZN7ap_uintILi49EEC1El(%struct.ap_uint* getelementptr inbounds ([18000 x %struct.ap_uint]* @_ZL13training_data, i64 0, i64 1522), i64 488121146880)
  call void @_ZN7ap_uintILi49EEC1El(%struct.ap_uint* getelementptr inbounds ([18000 x %struct.ap_uint]* @_ZL13training_data, i64 0, i64 1523), i64 2078299426560)
  call void @_ZN7ap_uintILi49EEC1El(%struct.ap_uint* getelementptr inbounds ([18000 x %struct.ap_uint]* @_ZL13training_data, i64 0, i64 1524), i64 420475805184)
  call void @_ZN7ap_uintILi49EEC1El(%struct.ap_uint* getelementptr inbounds ([18000 x %struct.ap_uint]* @_ZL13training_data, i64 0, i64 1525), i64 970231175424)
  call void @_ZN7ap_uintILi49EEC1El(%struct.ap_uint* getelementptr inbounds ([18000 x %struct.ap_uint]* @_ZL13training_data, i64 0, i64 1526), i64 976136474112)
  call void @_ZN7ap_uintILi49EEC1El(%struct.ap_uint* getelementptr inbounds ([18000 x %struct.ap_uint]* @_ZL13training_data, i64 0, i64 1527), i64 841384562176)
  call void @_ZN7ap_uintILi49EEC1El(%struct.ap_uint* getelementptr inbounds ([18000 x %struct.ap_uint]* @_ZL13training_data, i64 0, i64 1528), i64 420761017856)
  call void @_ZN7ap_uintILi49EEC1El(%struct.ap_uint* getelementptr inbounds ([18000 x %struct.ap_uint]* @_ZL13training_data, i64 0, i64 1529), i64 209954606080)
  call void @_ZN7ap_uintILi49EEC1El(%struct.ap_uint* getelementptr inbounds ([18000 x %struct.ap_uint]* @_ZL13training_data, i64 0, i64 1530), i64 488121409024)
  call void @_ZN7ap_uintILi49EEC1El(%struct.ap_uint* getelementptr inbounds ([18000 x %struct.ap_uint]* @_ZL13training_data, i64 0, i64 1531), i64 419871165952)
  call void @_ZN7ap_uintILi49EEC1El(%struct.ap_uint* getelementptr inbounds ([18000 x %struct.ap_uint]* @_ZL13training_data, i64 0, i64 1532), i64 280855354880)
  call void @_ZN7ap_uintILi49EEC1El(%struct.ap_uint* getelementptr inbounds ([18000 x %struct.ap_uint]* @_ZL13training_data, i64 0, i64 1533), i64 968050380544)
  call void @_ZN7ap_uintILi49EEC1El(%struct.ap_uint* getelementptr inbounds ([18000 x %struct.ap_uint]* @_ZL13training_data, i64 0, i64 1534), i64 415039294464)
  call void @_ZN7ap_uintILi49EEC1El(%struct.ap_uint* getelementptr inbounds ([18000 x %struct.ap_uint]* @_ZL13training_data, i64 0, i64 1535), i64 417153453568)
  call void @_ZN7ap_uintILi49EEC1El(%struct.ap_uint* getelementptr inbounds ([18000 x %struct.ap_uint]* @_ZL13training_data, i64 0, i64 1536), i64 214250265600)
  call void @_ZN7ap_uintILi49EEC1El(%struct.ap_uint* getelementptr inbounds ([18000 x %struct.ap_uint]* @_ZL13training_data, i64 0, i64 1537), i64 829570780672)
  call void @_ZN7ap_uintILi49EEC1El(%struct.ap_uint* getelementptr inbounds ([18000 x %struct.ap_uint]* @_ZL13training_data, i64 0, i64 1538), i64 968084000256)
  call void @_ZN7ap_uintILi49EEC1El(%struct.ap_uint* getelementptr inbounds ([18000 x %struct.ap_uint]* @_ZL13training_data, i64 0, i64 1539), i64 415597267968)
  call void @_ZN7ap_uintILi49EEC1El(%struct.ap_uint* getelementptr inbounds ([18000 x %struct.ap_uint]* @_ZL13training_data, i64 0, i64 1540), i64 416117361664)
  call void @_ZN7ap_uintILi49EEC1El(%struct.ap_uint* getelementptr inbounds ([18000 x %struct.ap_uint]* @_ZL13training_data, i64 0, i64 1541), i64 419947322880)
  call void @_ZN7ap_uintILi49EEC1El(%struct.ap_uint* getelementptr inbounds ([18000 x %struct.ap_uint]* @_ZL13training_data, i64 0, i64 1542), i64 278141406720)
  call void @_ZN7ap_uintILi49EEC1El(%struct.ap_uint* getelementptr inbounds ([18000 x %struct.ap_uint]* @_ZL13training_data, i64 0, i64 1543), i64 420416523776)
